
gr_Appli.elf:     file format elf32-littlearm

Sections:
Idx Name          Size      VMA       LMA       File off  Algn
  0 .isr_vector   0000034c  70100400  70100400  00000400  2**0
                  CONTENTS, ALLOC, LOAD, READONLY, DATA
  1 .text         00003b90  7010074c  7010074c  0000074c  2**2
                  CONTENTS, ALLOC, LOAD, READONLY, CODE
  2 .rodata       00000000  701042dc  701042dc  00005320  2**0
                  CONTENTS, ALLOC, LOAD, DATA
  3 .ARM.extab    00000000  701042dc  701042dc  00005320  2**0
                  CONTENTS, READONLY
  4 .ARM          00000000  701042dc  701042dc  00005320  2**0
                  CONTENTS, READONLY
  5 .preinit_array 00000000  701042dc  701042dc  00005320  2**0
                  CONTENTS, ALLOC, LOAD, DATA
  6 .init_array   00000004  701042dc  701042dc  000042dc  2**2
                  CONTENTS, ALLOC, LOAD, READONLY, DATA
  7 .fini_array   00000004  701042e0  701042e0  000042e0  2**2
                  CONTENTS, ALLOC, LOAD, READONLY, DATA
  8 .data         0000000c  34000000  701042e4  00005000  2**2
                  CONTENTS, ALLOC, LOAD, DATA
  9 .noncacheable 00000004  3400000c  701042f0  0000500c  2**0
                  ALLOC
 10 .gnu.sgstubs  00000020  70104300  70104300  00005300  2**5
                  CONTENTS, ALLOC, LOAD, READONLY, CODE
 11 .bss          00000114  34000010  34000010  00001010  2**2
                  ALLOC
 12 ._user_heap_stack 00000a04  34000124  34000124  00001010  2**0
                  ALLOC
 13 .EXTRAM       00000000  90000000  90000000  00005320  2**0
                  CONTENTS
 14 .ARM.attributes 0000003a  00000000  00000000  00005320  2**0
                  CONTENTS, READONLY
 15 .comment      00000043  00000000  00000000  0000535a  2**0
                  CONTENTS, READONLY
 16 .debug_frame  0000004c  00000000  00000000  000053a0  2**2
                  CONTENTS, READONLY, DEBUGGING, OCTETS

Disassembly of section .text:

7010074c <__do_global_dtors_aux>:
7010074c:	b510      	push	{r4, lr}
7010074e:	4c05      	ldr	r4, [pc, #20]	@ (70100764 <__do_global_dtors_aux+0x18>)
70100750:	7823      	ldrb	r3, [r4, #0]
70100752:	b933      	cbnz	r3, 70100762 <__do_global_dtors_aux+0x16>
70100754:	4b04      	ldr	r3, [pc, #16]	@ (70100768 <__do_global_dtors_aux+0x1c>)
70100756:	b113      	cbz	r3, 7010075e <__do_global_dtors_aux+0x12>
70100758:	4804      	ldr	r0, [pc, #16]	@ (7010076c <__do_global_dtors_aux+0x20>)
7010075a:	f3af 8000 	nop.w
7010075e:	2301      	movs	r3, #1
70100760:	7023      	strb	r3, [r4, #0]
70100762:	bd10      	pop	{r4, pc}
70100764:	34000010 	.word	0x34000010
70100768:	00000000 	.word	0x00000000
7010076c:	701042c4 	.word	0x701042c4

70100770 <frame_dummy>:
70100770:	b508      	push	{r3, lr}
70100772:	4b03      	ldr	r3, [pc, #12]	@ (70100780 <frame_dummy+0x10>)
70100774:	b11b      	cbz	r3, 7010077e <frame_dummy+0xe>
70100776:	4903      	ldr	r1, [pc, #12]	@ (70100784 <frame_dummy+0x14>)
70100778:	4803      	ldr	r0, [pc, #12]	@ (70100788 <frame_dummy+0x18>)
7010077a:	f3af 8000 	nop.w
7010077e:	bd08      	pop	{r3, pc}
70100780:	00000000 	.word	0x00000000
70100784:	34000014 	.word	0x34000014
70100788:	701042c4 	.word	0x701042c4

7010078c <PeriphCommonClock_Config>:
7010078c:	b500      	push	{lr}
7010078e:	b0e5      	sub	sp, #404	@ 0x194
70100790:	f44f 72c8 	mov.w	r2, #400	@ 0x190
70100794:	2100      	movs	r1, #0
70100796:	4668      	mov	r0, sp
70100798:	f003 fd67 	bl	7010426a <memset>
7010079c:	2204      	movs	r2, #4
7010079e:	2380      	movs	r3, #128	@ 0x80
701007a0:	4668      	mov	r0, sp
701007a2:	e9cd 2300 	strd	r2, r3, [sp]
701007a6:	f001 f9ad 	bl	70101b04 <HAL_RCCEx_PeriphCLKConfig>
701007aa:	b108      	cbz	r0, 701007b0 <PeriphCommonClock_Config+0x24>
701007ac:	b672      	cpsid	i
701007ae:	e7fe      	b.n	701007ae <PeriphCommonClock_Config+0x22>
701007b0:	b065      	add	sp, #404	@ 0x194
701007b2:	bd00      	pop	{pc}

701007b4 <main>:
701007b4:	b580      	push	{r7, lr}
701007b6:	4b6b      	ldr	r3, [pc, #428]	@ (70100964 <main+0x1b0>)
701007b8:	b090      	sub	sp, #64	@ 0x40
701007ba:	695a      	ldr	r2, [r3, #20]
701007bc:	f412 3200 	ands.w	r2, r2, #131072	@ 0x20000
701007c0:	d111      	bne.n	701007e6 <main+0x32>
701007c2:	f3bf 8f4f 	dsb	sy
701007c6:	f3bf 8f6f 	isb	sy
701007ca:	f8c3 2250 	str.w	r2, [r3, #592]	@ 0x250
701007ce:	f3bf 8f4f 	dsb	sy
701007d2:	f3bf 8f6f 	isb	sy
701007d6:	695a      	ldr	r2, [r3, #20]
701007d8:	f442 3200 	orr.w	r2, r2, #131072	@ 0x20000
701007dc:	615a      	str	r2, [r3, #20]
701007de:	f3bf 8f4f 	dsb	sy
701007e2:	f3bf 8f6f 	isb	sy
701007e6:	4a5f      	ldr	r2, [pc, #380]	@ (70100964 <main+0x1b0>)
701007e8:	6953      	ldr	r3, [r2, #20]
701007ea:	f413 3380 	ands.w	r3, r3, #65536	@ 0x10000
701007ee:	d128      	bne.n	70100842 <main+0x8e>
701007f0:	f8c2 3084 	str.w	r3, [r2, #132]	@ 0x84
701007f4:	f3bf 8f4f 	dsb	sy
701007f8:	f643 74e0 	movw	r4, #16352	@ 0x3fe0
701007fc:	f8d2 3080 	ldr.w	r3, [r2, #128]	@ 0x80
70100800:	f3c3 00c9 	ubfx	r0, r3, #3, #10
70100804:	f3c3 334e 	ubfx	r3, r3, #13, #15
70100808:	015b      	lsls	r3, r3, #5
7010080a:	f100 0e01 	add.w	lr, r0, #1
7010080e:	4601      	mov	r1, r0
70100810:	f04e e001 	dls	lr, lr
70100814:	ea03 0604 	and.w	r6, r3, r4
70100818:	ea46 7581 	orr.w	r5, r6, r1, lsl #30
7010081c:	f8c2 5260 	str.w	r5, [r2, #608]	@ 0x260
70100820:	3901      	subs	r1, #1
70100822:	f00f c807 	le	lr, 70100818 <main+0x64>
70100826:	3b20      	subs	r3, #32
70100828:	f113 0f20 	cmn.w	r3, #32
7010082c:	d1ed      	bne.n	7010080a <main+0x56>
7010082e:	f3bf 8f4f 	dsb	sy
70100832:	6953      	ldr	r3, [r2, #20]
70100834:	f443 3380 	orr.w	r3, r3, #65536	@ 0x10000
70100838:	6153      	str	r3, [r2, #20]
7010083a:	f3bf 8f4f 	dsb	sy
7010083e:	f3bf 8f6f 	isb	sy
70100842:	f000 fac3 	bl	70100dcc <HAL_Init>
70100846:	f44f 7300 	mov.w	r3, #512	@ 0x200
7010084a:	4c47      	ldr	r4, [pc, #284]	@ (70100968 <main+0x1b4>)
7010084c:	f240 3201 	movw	r2, #769	@ 0x301
70100850:	f8c4 3a58 	str.w	r3, [r4, #2648]	@ 0xa58
70100854:	f8d4 3258 	ldr.w	r3, [r4, #600]	@ 0x258
70100858:	2101      	movs	r1, #1
7010085a:	4844      	ldr	r0, [pc, #272]	@ (7010096c <main+0x1b8>)
7010085c:	9300      	str	r3, [sp, #0]
7010085e:	9b00      	ldr	r3, [sp, #0]
70100860:	f001 f90e 	bl	70101a80 <HAL_GPIO_ConfigPinAttributes>
70100864:	f7ff ff92 	bl	7010078c <PeriphCommonClock_Config>
70100868:	2320      	movs	r3, #32
7010086a:	2500      	movs	r5, #0
7010086c:	f8c4 3a5c 	str.w	r3, [r4, #2652]	@ 0xa5c
70100870:	f8d4 325c 	ldr.w	r3, [r4, #604]	@ 0x25c
70100874:	2210      	movs	r2, #16
70100876:	2100      	movs	r1, #0
70100878:	9301      	str	r3, [sp, #4]
7010087a:	a805      	add	r0, sp, #20
7010087c:	9b01      	ldr	r3, [sp, #4]
7010087e:	f003 fcf4 	bl	7010426a <memset>
70100882:	221c      	movs	r2, #28
70100884:	4629      	mov	r1, r5
70100886:	a809      	add	r0, sp, #36	@ 0x24
70100888:	e9cd 5502 	strd	r5, r5, [sp, #8]
7010088c:	9504      	str	r5, [sp, #16]
7010088e:	f003 fcec 	bl	7010426a <memset>
70100892:	f240 138f 	movw	r3, #399	@ 0x18f
70100896:	4c36      	ldr	r4, [pc, #216]	@ (70100970 <main+0x1bc>)
70100898:	4a36      	ldr	r2, [pc, #216]	@ (70100974 <main+0x1c0>)
7010089a:	4620      	mov	r0, r4
7010089c:	e9c4 2300 	strd	r2, r3, [r4]
701008a0:	f644 631f 	movw	r3, #19999	@ 0x4e1f
701008a4:	e9c4 3503 	strd	r3, r5, [r4, #12]
701008a8:	2380      	movs	r3, #128	@ 0x80
701008aa:	60a5      	str	r5, [r4, #8]
701008ac:	61a3      	str	r3, [r4, #24]
701008ae:	f002 ffbd 	bl	7010382c <HAL_TIM_Base_Init>
701008b2:	b108      	cbz	r0, 701008b8 <main+0x104>
701008b4:	b672      	cpsid	i
701008b6:	e7fe      	b.n	701008b6 <main+0x102>
701008b8:	f44f 5380 	mov.w	r3, #4096	@ 0x1000
701008bc:	4620      	mov	r0, r4
701008be:	a905      	add	r1, sp, #20
701008c0:	9305      	str	r3, [sp, #20]
701008c2:	f003 f8ed 	bl	70103aa0 <HAL_TIM_ConfigClockSource>
701008c6:	b108      	cbz	r0, 701008cc <main+0x118>
701008c8:	b672      	cpsid	i
701008ca:	e7fe      	b.n	701008ca <main+0x116>
701008cc:	4620      	mov	r0, r4
701008ce:	f002 ffdd 	bl	7010388c <HAL_TIM_PWM_Init>
701008d2:	b108      	cbz	r0, 701008d8 <main+0x124>
701008d4:	b672      	cpsid	i
701008d6:	e7fe      	b.n	701008d6 <main+0x122>
701008d8:	9002      	str	r0, [sp, #8]
701008da:	9004      	str	r0, [sp, #16]
701008dc:	a902      	add	r1, sp, #8
701008de:	4620      	mov	r0, r4
701008e0:	f003 fa8a 	bl	70103df8 <HAL_TIMEx_MasterConfigSynchronization>
701008e4:	b108      	cbz	r0, 701008ea <main+0x136>
701008e6:	b672      	cpsid	i
701008e8:	e7fe      	b.n	701008e8 <main+0x134>
701008ea:	2360      	movs	r3, #96	@ 0x60
701008ec:	f240 55dc 	movw	r5, #1500	@ 0x5dc
701008f0:	900b      	str	r0, [sp, #44]	@ 0x2c
701008f2:	900d      	str	r0, [sp, #52]	@ 0x34
701008f4:	220c      	movs	r2, #12
701008f6:	4620      	mov	r0, r4
701008f8:	a909      	add	r1, sp, #36	@ 0x24
701008fa:	e9cd 3509 	strd	r3, r5, [sp, #36]	@ 0x24
701008fe:	f003 f849 	bl	70103994 <HAL_TIM_PWM_ConfigChannel>
70100902:	b108      	cbz	r0, 70100908 <main+0x154>
70100904:	b672      	cpsid	i
70100906:	e7fe      	b.n	70100906 <main+0x152>
70100908:	4620      	mov	r0, r4
7010090a:	f000 f879 	bl	70100a00 <HAL_TIM_MspPostInit>
7010090e:	210c      	movs	r1, #12
70100910:	4620      	mov	r0, r4
70100912:	f003 fa6f 	bl	70103df4 <HAL_TIM_PWM_Start>
70100916:	b108      	cbz	r0, 7010091c <main+0x168>
70100918:	b672      	cpsid	i
7010091a:	e7fe      	b.n	7010091a <main+0x166>
7010091c:	6823      	ldr	r3, [r4, #0]
7010091e:	f44f 707a 	mov.w	r0, #1000	@ 0x3e8
70100922:	641d      	str	r5, [r3, #64]	@ 0x40
70100924:	f000 fa76 	bl	70100e14 <HAL_Delay>
70100928:	f44f 772f 	mov.w	r7, #700	@ 0x2bc
7010092c:	f640 06fc 	movw	r6, #2300	@ 0x8fc
70100930:	6823      	ldr	r3, [r4, #0]
70100932:	f240 50dc 	movw	r0, #1500	@ 0x5dc
70100936:	641f      	str	r7, [r3, #64]	@ 0x40
70100938:	f000 fa6c 	bl	70100e14 <HAL_Delay>
7010093c:	6823      	ldr	r3, [r4, #0]
7010093e:	f240 50dc 	movw	r0, #1500	@ 0x5dc
70100942:	641d      	str	r5, [r3, #64]	@ 0x40
70100944:	f000 fa66 	bl	70100e14 <HAL_Delay>
70100948:	6823      	ldr	r3, [r4, #0]
7010094a:	f240 50dc 	movw	r0, #1500	@ 0x5dc
7010094e:	641e      	str	r6, [r3, #64]	@ 0x40
70100950:	f000 fa60 	bl	70100e14 <HAL_Delay>
70100954:	6823      	ldr	r3, [r4, #0]
70100956:	f240 50dc 	movw	r0, #1500	@ 0x5dc
7010095a:	641d      	str	r5, [r3, #64]	@ 0x40
7010095c:	f000 fa5a 	bl	70100e14 <HAL_Delay>
70100960:	e7e6      	b.n	70100930 <main+0x17c>
70100962:	bf00      	nop
70100964:	e000ed00 	.word	0xe000ed00
70100968:	56028000 	.word	0x56028000
7010096c:	56021400 	.word	0x56021400
70100970:	340000c0 	.word	0x340000c0
70100974:	50000800 	.word	0x50000800

70100978 <__acle_se_SECURE_RegisterCallback>:
70100978:	b2c0      	uxtb	r0, r0
7010097a:	ed6d cf81 	vstr	FPCXTNS, [sp, #-4]!
7010097e:	b111      	cbz	r1, 70100986 <__acle_se_SECURE_RegisterCallback+0xe>
70100980:	b140      	cbz	r0, 70100994 <__acle_se_SECURE_RegisterCallback+0x1c>
70100982:	2801      	cmp	r0, #1
70100984:	d009      	beq.n	7010099a <__acle_se_SECURE_RegisterCallback+0x22>
70100986:	ec9f 0a10 	vscclrm	{s0-s15, VPR}
7010098a:	e89f 900f 	clrm	{r0, r1, r2, r3, ip, APSR}
7010098e:	ecfd cf81 	vldr	FPCXTNS, [sp], #4
70100992:	4774      	bxns	lr
70100994:	4b02      	ldr	r3, [pc, #8]	@ (701009a0 <__acle_se_SECURE_RegisterCallback+0x28>)
70100996:	6019      	str	r1, [r3, #0]
70100998:	e7f5      	b.n	70100986 <__acle_se_SECURE_RegisterCallback+0xe>
7010099a:	4b02      	ldr	r3, [pc, #8]	@ (701009a4 <__acle_se_SECURE_RegisterCallback+0x2c>)
7010099c:	e7fb      	b.n	70100996 <__acle_se_SECURE_RegisterCallback+0x1e>
7010099e:	bf00      	nop
701009a0:	34000110 	.word	0x34000110
701009a4:	3400010c 	.word	0x3400010c

701009a8 <HAL_MspInit>:
701009a8:	f44f 7200 	mov.w	r2, #512	@ 0x200
701009ac:	4b07      	ldr	r3, [pc, #28]	@ (701009cc <HAL_MspInit+0x24>)
701009ae:	b082      	sub	sp, #8
701009b0:	2101      	movs	r1, #1
701009b2:	f8c3 2a58 	str.w	r2, [r3, #2648]	@ 0xa58
701009b6:	f240 3201 	movw	r2, #769	@ 0x301
701009ba:	f8d3 3258 	ldr.w	r3, [r3, #600]	@ 0x258
701009be:	4804      	ldr	r0, [pc, #16]	@ (701009d0 <HAL_MspInit+0x28>)
701009c0:	9301      	str	r3, [sp, #4]
701009c2:	9b01      	ldr	r3, [sp, #4]
701009c4:	b002      	add	sp, #8
701009c6:	f001 b85b 	b.w	70101a80 <HAL_GPIO_ConfigPinAttributes>
701009ca:	bf00      	nop
701009cc:	56028000 	.word	0x56028000
701009d0:	56021400 	.word	0x56021400

701009d4 <HAL_TIM_Base_MspInit>:
701009d4:	6802      	ldr	r2, [r0, #0]
701009d6:	4b07      	ldr	r3, [pc, #28]	@ (701009f4 <HAL_TIM_Base_MspInit+0x20>)
701009d8:	b082      	sub	sp, #8
701009da:	429a      	cmp	r2, r3
701009dc:	d107      	bne.n	701009ee <HAL_TIM_Base_MspInit+0x1a>
701009de:	2204      	movs	r2, #4
701009e0:	4b05      	ldr	r3, [pc, #20]	@ (701009f8 <HAL_TIM_Base_MspInit+0x24>)
701009e2:	f8c3 2a64 	str.w	r2, [r3, #2660]	@ 0xa64
701009e6:	f8d3 3264 	ldr.w	r3, [r3, #612]	@ 0x264
701009ea:	9301      	str	r3, [sp, #4]
701009ec:	9b01      	ldr	r3, [sp, #4]
701009ee:	b002      	add	sp, #8
701009f0:	4770      	bx	lr
701009f2:	bf00      	nop
701009f4:	50000800 	.word	0x50000800
701009f8:	56028000 	.word	0x56028000

701009fc <HAL_TIM_PWM_MspInit>:
701009fc:	f7ff bfea 	b.w	701009d4 <HAL_TIM_Base_MspInit>

70100a00 <HAL_TIM_MspPostInit>:
70100a00:	b510      	push	{r4, lr}
70100a02:	4604      	mov	r4, r0
70100a04:	b086      	sub	sp, #24
70100a06:	2214      	movs	r2, #20
70100a08:	2100      	movs	r1, #0
70100a0a:	a801      	add	r0, sp, #4
70100a0c:	f003 fc2d 	bl	7010426a <memset>
70100a10:	6822      	ldr	r2, [r4, #0]
70100a12:	4b0b      	ldr	r3, [pc, #44]	@ (70100a40 <HAL_TIM_MspPostInit+0x40>)
70100a14:	429a      	cmp	r2, r3
70100a16:	d110      	bne.n	70100a3a <HAL_TIM_MspPostInit+0x3a>
70100a18:	2220      	movs	r2, #32
70100a1a:	4b0a      	ldr	r3, [pc, #40]	@ (70100a44 <HAL_TIM_MspPostInit+0x44>)
70100a1c:	480a      	ldr	r0, [pc, #40]	@ (70100a48 <HAL_TIM_MspPostInit+0x48>)
70100a1e:	f8c3 2a5c 	str.w	r2, [r3, #2652]	@ 0xa5c
70100a22:	f8d3 325c 	ldr.w	r3, [r3, #604]	@ 0x25c
70100a26:	2201      	movs	r2, #1
70100a28:	9300      	str	r3, [sp, #0]
70100a2a:	9b00      	ldr	r3, [sp, #0]
70100a2c:	2302      	movs	r3, #2
70100a2e:	a901      	add	r1, sp, #4
70100a30:	e9cd 2301 	strd	r2, r3, [sp, #4]
70100a34:	9305      	str	r3, [sp, #20]
70100a36:	f000 ff3f 	bl	701018b8 <HAL_GPIO_Init>
70100a3a:	b006      	add	sp, #24
70100a3c:	bd10      	pop	{r4, pc}
70100a3e:	bf00      	nop
70100a40:	50000800 	.word	0x50000800
70100a44:	56028000 	.word	0x56028000
70100a48:	56021400 	.word	0x56021400

70100a4c <NMI_Handler>:
70100a4c:	e7fe      	b.n	70100a4c <NMI_Handler>

70100a4e <HardFault_Handler>:
70100a4e:	e7fe      	b.n	70100a4e <HardFault_Handler>

70100a50 <MemManage_Handler>:
70100a50:	e7fe      	b.n	70100a50 <MemManage_Handler>

70100a52 <BusFault_Handler>:
70100a52:	e7fe      	b.n	70100a52 <BusFault_Handler>

70100a54 <UsageFault_Handler>:
70100a54:	e7fe      	b.n	70100a54 <UsageFault_Handler>

70100a56 <SecureFault_Handler>:
70100a56:	e7fe      	b.n	70100a56 <SecureFault_Handler>

70100a58 <SVC_Handler>:
70100a58:	4770      	bx	lr

70100a5a <DebugMon_Handler>:
70100a5a:	4770      	bx	lr

70100a5c <PendSV_Handler>:
70100a5c:	4770      	bx	lr

70100a5e <SysTick_Handler>:
70100a5e:	f000 b9c7 	b.w	70100df0 <HAL_IncTick>
	...

70100a64 <USART1_IRQHandler>:
70100a64:	4801      	ldr	r0, [pc, #4]	@ (70100a6c <USART1_IRQHandler+0x8>)
70100a66:	f003 ba7b 	b.w	70103f60 <HAL_UART_IRQHandler>
70100a6a:	bf00      	nop
70100a6c:	3400002c 	.word	0x3400002c

70100a70 <CSI_IRQHandler>:
70100a70:	4801      	ldr	r0, [pc, #4]	@ (70100a78 <CSI_IRQHandler+0x8>)
70100a72:	f000 bb73 	b.w	7010115c <HAL_DCMIPP_CSI_IRQHandler>
70100a76:	bf00      	nop
70100a78:	34000114 	.word	0x34000114

70100a7c <DCMIPP_IRQHandler>:
70100a7c:	4801      	ldr	r0, [pc, #4]	@ (70100a84 <DCMIPP_IRQHandler+0x8>)
70100a7e:	f000 ba37 	b.w	70100ef0 <HAL_DCMIPP_IRQHandler>
70100a82:	bf00      	nop
70100a84:	34000114 	.word	0x34000114

70100a88 <Reset_Handler>:
70100a88:	480f      	ldr	r0, [pc, #60]	@ (70100ac8 <LoopForever+0x4>)
70100a8a:	f380 880a 	msr	MSPLIM, r0
70100a8e:	480f      	ldr	r0, [pc, #60]	@ (70100acc <LoopForever+0x8>)
70100a90:	4685      	mov	sp, r0
70100a92:	f000 f829 	bl	70100ae8 <SystemInit>
70100a96:	480e      	ldr	r0, [pc, #56]	@ (70100ad0 <LoopForever+0xc>)
70100a98:	490e      	ldr	r1, [pc, #56]	@ (70100ad4 <LoopForever+0x10>)
70100a9a:	4a0f      	ldr	r2, [pc, #60]	@ (70100ad8 <LoopForever+0x14>)
70100a9c:	2300      	movs	r3, #0
70100a9e:	e002      	b.n	70100aa6 <LoopCopyDataInit>

70100aa0 <CopyDataInit>:
70100aa0:	58d4      	ldr	r4, [r2, r3]
70100aa2:	50c4      	str	r4, [r0, r3]
70100aa4:	3304      	adds	r3, #4

70100aa6 <LoopCopyDataInit>:
70100aa6:	18c4      	adds	r4, r0, r3
70100aa8:	428c      	cmp	r4, r1
70100aaa:	d3f9      	bcc.n	70100aa0 <CopyDataInit>
70100aac:	4a0b      	ldr	r2, [pc, #44]	@ (70100adc <LoopForever+0x18>)
70100aae:	4c0c      	ldr	r4, [pc, #48]	@ (70100ae0 <LoopForever+0x1c>)
70100ab0:	2300      	movs	r3, #0
70100ab2:	e001      	b.n	70100ab8 <LoopFillZerobss>

70100ab4 <FillZerobss>:
70100ab4:	6013      	str	r3, [r2, #0]
70100ab6:	3204      	adds	r2, #4

70100ab8 <LoopFillZerobss>:
70100ab8:	42a2      	cmp	r2, r4
70100aba:	d3fb      	bcc.n	70100ab4 <FillZerobss>
70100abc:	f003 fbde 	bl	7010427c <__libc_init_array>
70100ac0:	f7ff fe78 	bl	701007b4 <main>

70100ac4 <LoopForever>:
70100ac4:	e7fe      	b.n	70100ac4 <LoopForever>
70100ac6:	0000      	.short	0x0000
70100ac8:	341ff800 	.word	0x341ff800
70100acc:	34200000 	.word	0x34200000
70100ad0:	34000000 	.word	0x34000000
70100ad4:	3400000c 	.word	0x3400000c
70100ad8:	701042e4 	.word	0x701042e4
70100adc:	34000010 	.word	0x34000010
70100ae0:	34000124 	.word	0x34000124

70100ae4 <ADC1_2_IRQHandler>:
70100ae4:	e7fe      	b.n	70100ae4 <ADC1_2_IRQHandler>
	...

70100ae8 <SystemInit>:
70100ae8:	491e      	ldr	r1, [pc, #120]	@ (70100b64 <SystemInit+0x7c>)
70100aea:	4a1f      	ldr	r2, [pc, #124]	@ (70100b68 <SystemInit+0x80>)
70100aec:	f8d1 308c 	ldr.w	r3, [r1, #140]	@ 0x8c
70100af0:	b510      	push	{r4, lr}
70100af2:	f443 6340 	orr.w	r3, r3, #3072	@ 0xc00
70100af6:	f8c1 308c 	str.w	r3, [r1, #140]	@ 0x8c
70100afa:	6b53      	ldr	r3, [r2, #52]	@ 0x34
70100afc:	f023 53e0 	bic.w	r3, r3, #469762048	@ 0x1c000000
70100b00:	f043 5380 	orr.w	r3, r3, #268435456	@ 0x10000000
70100b04:	6353      	str	r3, [r2, #52]	@ 0x34
70100b06:	2200      	movs	r2, #0
70100b08:	4b18      	ldr	r3, [pc, #96]	@ (70100b6c <SystemInit+0x84>)
70100b0a:	f8c3 2280 	str.w	r2, [r3, #640]	@ 0x280
70100b0e:	f8c3 2284 	str.w	r2, [r3, #644]	@ 0x284
70100b12:	f8c3 2288 	str.w	r2, [r3, #648]	@ 0x288
70100b16:	f8c3 228c 	str.w	r2, [r3, #652]	@ 0x28c
70100b1a:	f8c3 2290 	str.w	r2, [r3, #656]	@ 0x290
70100b1e:	f8c3 2294 	str.w	r2, [r3, #660]	@ 0x294
70100b22:	f8c3 2298 	str.w	r2, [r3, #664]	@ 0x298
70100b26:	2201      	movs	r2, #1
70100b28:	4b11      	ldr	r3, [pc, #68]	@ (70100b70 <SystemInit+0x88>)
70100b2a:	608b      	str	r3, [r1, #8]
70100b2c:	4b11      	ldr	r3, [pc, #68]	@ (70100b74 <SystemInit+0x8c>)
70100b2e:	f8c3 2a78 	str.w	r2, [r3, #2680]	@ 0xa78
70100b32:	f8d3 0278 	ldr.w	r0, [r3, #632]	@ 0x278
70100b36:	688c      	ldr	r4, [r1, #8]
70100b38:	480f      	ldr	r0, [pc, #60]	@ (70100b78 <SystemInit+0x90>)
70100b3a:	f503 5380 	add.w	r3, r3, #4096	@ 0x1000
70100b3e:	6104      	str	r4, [r0, #16]
70100b40:	6900      	ldr	r0, [r0, #16]
70100b42:	f8c3 2278 	str.w	r2, [r3, #632]	@ 0x278
70100b46:	f8d1 3088 	ldr.w	r3, [r1, #136]	@ 0x88
70100b4a:	4a0c      	ldr	r2, [pc, #48]	@ (70100b7c <SystemInit+0x94>)
70100b4c:	f443 0370 	orr.w	r3, r3, #15728640	@ 0xf00000
70100b50:	f8c1 3088 	str.w	r3, [r1, #136]	@ 0x88
70100b54:	f8d2 3088 	ldr.w	r3, [r2, #136]	@ 0x88
70100b58:	f443 0370 	orr.w	r3, r3, #15728640	@ 0xf00000
70100b5c:	f8c2 3088 	str.w	r3, [r2, #136]	@ 0x88
70100b60:	bd10      	pop	{r4, pc}
70100b62:	bf00      	nop
70100b64:	e000ed00 	.word	0xe000ed00
70100b68:	e000ef00 	.word	0xe000ef00
70100b6c:	e000e100 	.word	0xe000e100
70100b70:	70100400 	.word	0x70100400
70100b74:	56028000 	.word	0x56028000
70100b78:	56008000 	.word	0x56008000
70100b7c:	e002ed00 	.word	0xe002ed00

70100b80 <SystemCoreClockUpdate>:
70100b80:	4b6e      	ldr	r3, [pc, #440]	@ (70100d3c <SystemCoreClockUpdate+0x1bc>)
70100b82:	b5f0      	push	{r4, r5, r6, r7, lr}
70100b84:	6a1a      	ldr	r2, [r3, #32]
70100b86:	f402 1240 	and.w	r2, r2, #3145728	@ 0x300000
70100b8a:	f5b2 1f00 	cmp.w	r2, #2097152	@ 0x200000
70100b8e:	f000 80b9 	beq.w	70100d04 <SystemCoreClockUpdate+0x184>
70100b92:	d806      	bhi.n	70100ba2 <SystemCoreClockUpdate+0x22>
70100b94:	b962      	cbnz	r2, 70100bb0 <SystemCoreClockUpdate+0x30>
70100b96:	6c9a      	ldr	r2, [r3, #72]	@ 0x48
70100b98:	4b69      	ldr	r3, [pc, #420]	@ (70100d40 <SystemCoreClockUpdate+0x1c0>)
70100b9a:	f3c2 12c1 	ubfx	r2, r2, #7, #2
70100b9e:	40d3      	lsrs	r3, r2
70100ba0:	e003      	b.n	70100baa <SystemCoreClockUpdate+0x2a>
70100ba2:	f5b2 1f40 	cmp.w	r2, #3145728	@ 0x300000
70100ba6:	d009      	beq.n	70100bbc <SystemCoreClockUpdate+0x3c>
70100ba8:	2300      	movs	r3, #0
70100baa:	4a66      	ldr	r2, [pc, #408]	@ (70100d44 <SystemCoreClockUpdate+0x1c4>)
70100bac:	6013      	str	r3, [r2, #0]
70100bae:	bdf0      	pop	{r4, r5, r6, r7, pc}
70100bb0:	6c5b      	ldr	r3, [r3, #68]	@ 0x44
70100bb2:	059f      	lsls	r7, r3, #22
70100bb4:	f100 80a8 	bmi.w	70100d08 <SystemCoreClockUpdate+0x188>
70100bb8:	4b63      	ldr	r3, [pc, #396]	@ (70100d48 <SystemCoreClockUpdate+0x1c8>)
70100bba:	e7f6      	b.n	70100baa <SystemCoreClockUpdate+0x2a>
70100bbc:	f8d3 20c4 	ldr.w	r2, [r3, #196]	@ 0xc4
70100bc0:	f002 5240 	and.w	r2, r2, #805306368	@ 0x30000000
70100bc4:	f1b2 5f80 	cmp.w	r2, #268435456	@ 0x10000000
70100bc8:	d029      	beq.n	70100c1e <SystemCoreClockUpdate+0x9e>
70100bca:	f1b2 5f00 	cmp.w	r2, #536870912	@ 0x20000000
70100bce:	d035      	beq.n	70100c3c <SystemCoreClockUpdate+0xbc>
70100bd0:	2a00      	cmp	r2, #0
70100bd2:	d142      	bne.n	70100c5a <SystemCoreClockUpdate+0xda>
70100bd4:	f8d3 1080 	ldr.w	r1, [r3, #128]	@ 0x80
70100bd8:	010e      	lsls	r6, r1, #4
70100bda:	f001 40e0 	and.w	r0, r1, #1879048192	@ 0x70000000
70100bde:	f100 809a 	bmi.w	70100d16 <SystemCoreClockUpdate+0x196>
70100be2:	f8d3 4084 	ldr.w	r4, [r3, #132]	@ 0x84
70100be6:	f8d3 2088 	ldr.w	r2, [r3, #136]	@ 0x88
70100bea:	f3c1 250b 	ubfx	r5, r1, #8, #12
70100bee:	f024 447f 	bic.w	r4, r4, #4278190080	@ 0xff000000
70100bf2:	4607      	mov	r7, r0
70100bf4:	f1b7 5f00 	cmp.w	r7, #536870912	@ 0x20000000
70100bf8:	f3c2 66c2 	ubfx	r6, r2, #27, #3
70100bfc:	f3c1 5005 	ubfx	r0, r1, #20, #6
70100c00:	f3c2 6202 	ubfx	r2, r2, #24, #3
70100c04:	d04e      	beq.n	70100ca4 <SystemCoreClockUpdate+0x124>
70100c06:	f200 8081 	bhi.w	70100d0c <SystemCoreClockUpdate+0x18c>
70100c0a:	2f00      	cmp	r7, #0
70100c0c:	d03a      	beq.n	70100c84 <SystemCoreClockUpdate+0x104>
70100c0e:	2700      	movs	r7, #0
70100c10:	4b4a      	ldr	r3, [pc, #296]	@ (70100d3c <SystemCoreClockUpdate+0x1bc>)
70100c12:	6c5b      	ldr	r3, [r3, #68]	@ 0x44
70100c14:	059b      	lsls	r3, r3, #22
70100c16:	bf54      	ite	pl
70100c18:	4b4b      	ldrpl	r3, [pc, #300]	@ (70100d48 <SystemCoreClockUpdate+0x1c8>)
70100c1a:	4b4c      	ldrmi	r3, [pc, #304]	@ (70100d4c <SystemCoreClockUpdate+0x1cc>)
70100c1c:	e038      	b.n	70100c90 <SystemCoreClockUpdate+0x110>
70100c1e:	f8d3 1090 	ldr.w	r1, [r3, #144]	@ 0x90
70100c22:	010d      	lsls	r5, r1, #4
70100c24:	f001 40e0 	and.w	r0, r1, #1879048192	@ 0x70000000
70100c28:	d475      	bmi.n	70100d16 <SystemCoreClockUpdate+0x196>
70100c2a:	f8d3 4094 	ldr.w	r4, [r3, #148]	@ 0x94
70100c2e:	f3c1 250b 	ubfx	r5, r1, #8, #12
70100c32:	f8d3 2098 	ldr.w	r2, [r3, #152]	@ 0x98
70100c36:	f024 447f 	bic.w	r4, r4, #4278190080	@ 0xff000000
70100c3a:	e7da      	b.n	70100bf2 <SystemCoreClockUpdate+0x72>
70100c3c:	f8d3 10a0 	ldr.w	r1, [r3, #160]	@ 0xa0
70100c40:	010c      	lsls	r4, r1, #4
70100c42:	f001 40e0 	and.w	r0, r1, #1879048192	@ 0x70000000
70100c46:	d466      	bmi.n	70100d16 <SystemCoreClockUpdate+0x196>
70100c48:	f8d3 40a4 	ldr.w	r4, [r3, #164]	@ 0xa4
70100c4c:	f3c1 250b 	ubfx	r5, r1, #8, #12
70100c50:	f8d3 20a8 	ldr.w	r2, [r3, #168]	@ 0xa8
70100c54:	f024 447f 	bic.w	r4, r4, #4278190080	@ 0xff000000
70100c58:	e7cb      	b.n	70100bf2 <SystemCoreClockUpdate+0x72>
70100c5a:	f8d3 10b0 	ldr.w	r1, [r3, #176]	@ 0xb0
70100c5e:	010a      	lsls	r2, r1, #4
70100c60:	f001 40e0 	and.w	r0, r1, #1879048192	@ 0x70000000
70100c64:	d457      	bmi.n	70100d16 <SystemCoreClockUpdate+0x196>
70100c66:	f8d3 40b4 	ldr.w	r4, [r3, #180]	@ 0xb4
70100c6a:	f3c1 250b 	ubfx	r5, r1, #8, #12
70100c6e:	f8d3 20b8 	ldr.w	r2, [r3, #184]	@ 0xb8
70100c72:	f024 447f 	bic.w	r4, r4, #4278190080	@ 0xff000000
70100c76:	e7bc      	b.n	70100bf2 <SystemCoreClockUpdate+0x72>
70100c78:	4602      	mov	r2, r0
70100c7a:	4606      	mov	r6, r0
70100c7c:	4604      	mov	r4, r0
70100c7e:	4605      	mov	r5, r0
70100c80:	f04f 6700 	mov.w	r7, #134217728	@ 0x8000000
70100c84:	4b2d      	ldr	r3, [pc, #180]	@ (70100d3c <SystemCoreClockUpdate+0x1bc>)
70100c86:	6c99      	ldr	r1, [r3, #72]	@ 0x48
70100c88:	4b2d      	ldr	r3, [pc, #180]	@ (70100d40 <SystemCoreClockUpdate+0x1c0>)
70100c8a:	f3c1 11c1 	ubfx	r1, r1, #7, #2
70100c8e:	40cb      	lsrs	r3, r1
70100c90:	b14f      	cbz	r7, 70100ca6 <SystemCoreClockUpdate+0x126>
70100c92:	4a2a      	ldr	r2, [pc, #168]	@ (70100d3c <SystemCoreClockUpdate+0x1bc>)
70100c94:	f8d2 20c4 	ldr.w	r2, [r2, #196]	@ 0xc4
70100c98:	f3c2 4207 	ubfx	r2, r2, #16, #8
70100c9c:	3201      	adds	r2, #1
70100c9e:	fbb3 f3f2 	udiv	r3, r3, r2
70100ca2:	e782      	b.n	70100baa <SystemCoreClockUpdate+0x2a>
70100ca4:	4b2a      	ldr	r3, [pc, #168]	@ (70100d50 <SystemCoreClockUpdate+0x1d0>)
70100ca6:	ee07 4a10 	vmov	s14, r4
70100caa:	eeb8 6ac7 	vcvt.f32.s32	s12, s14
70100cae:	ee07 5a10 	vmov	s14, r5
70100cb2:	ee07 3a90 	vmov	s15, r3
70100cb6:	eddf 6a27 	vldr	s13, [pc, #156]	@ 70100d54 <SystemCoreClockUpdate+0x1d4>
70100cba:	eeb8 7ac7 	vcvt.f32.s32	s14, s14
70100cbe:	eef8 7ae7 	vcvt.f32.s32	s15, s15
70100cc2:	eea6 7a26 	vfma.f32	s14, s12, s13
70100cc6:	ee67 7a87 	vmul.f32	s15, s15, s14
70100cca:	ee07 0a10 	vmov	s14, r0
70100cce:	eeb8 7ac7 	vcvt.f32.s32	s14, s14
70100cd2:	eec7 6a87 	vdiv.f32	s13, s15, s14
70100cd6:	ee07 6a90 	vmov	s15, r6
70100cda:	eeb8 7ae7 	vcvt.f32.s32	s14, s15
70100cde:	ee07 2a90 	vmov	s15, r2
70100ce2:	eef8 7ae7 	vcvt.f32.s32	s15, s15
70100ce6:	ee27 7a27 	vmul.f32	s14, s14, s15
70100cea:	eec6 7a87 	vdiv.f32	s15, s13, s14
70100cee:	eefc 7ae7 	vcvt.u32.f32	s15, s15
70100cf2:	ee17 3a90 	vmov	r3, s15
70100cf6:	e7cc      	b.n	70100c92 <SystemCoreClockUpdate+0x112>
70100cf8:	2300      	movs	r3, #0
70100cfa:	e7d4      	b.n	70100ca6 <SystemCoreClockUpdate+0x126>
70100cfc:	4b14      	ldr	r3, [pc, #80]	@ (70100d50 <SystemCoreClockUpdate+0x1d0>)
70100cfe:	e7c8      	b.n	70100c92 <SystemCoreClockUpdate+0x112>
70100d00:	2300      	movs	r3, #0
70100d02:	e7c6      	b.n	70100c92 <SystemCoreClockUpdate+0x112>
70100d04:	4b12      	ldr	r3, [pc, #72]	@ (70100d50 <SystemCoreClockUpdate+0x1d0>)
70100d06:	e750      	b.n	70100baa <SystemCoreClockUpdate+0x2a>
70100d08:	4b10      	ldr	r3, [pc, #64]	@ (70100d4c <SystemCoreClockUpdate+0x1cc>)
70100d0a:	e74e      	b.n	70100baa <SystemCoreClockUpdate+0x2a>
70100d0c:	f1b7 5f40 	cmp.w	r7, #805306368	@ 0x30000000
70100d10:	d1f2      	bne.n	70100cf8 <SystemCoreClockUpdate+0x178>
70100d12:	4b11      	ldr	r3, [pc, #68]	@ (70100d58 <SystemCoreClockUpdate+0x1d8>)
70100d14:	e7c7      	b.n	70100ca6 <SystemCoreClockUpdate+0x126>
70100d16:	f1b0 5f00 	cmp.w	r0, #536870912	@ 0x20000000
70100d1a:	d0ef      	beq.n	70100cfc <SystemCoreClockUpdate+0x17c>
70100d1c:	d809      	bhi.n	70100d32 <SystemCoreClockUpdate+0x1b2>
70100d1e:	2800      	cmp	r0, #0
70100d20:	d0aa      	beq.n	70100c78 <SystemCoreClockUpdate+0xf8>
70100d22:	2200      	movs	r2, #0
70100d24:	f04f 6700 	mov.w	r7, #134217728	@ 0x8000000
70100d28:	4616      	mov	r6, r2
70100d2a:	4614      	mov	r4, r2
70100d2c:	4615      	mov	r5, r2
70100d2e:	4610      	mov	r0, r2
70100d30:	e76e      	b.n	70100c10 <SystemCoreClockUpdate+0x90>
70100d32:	f1b0 5f40 	cmp.w	r0, #805306368	@ 0x30000000
70100d36:	d1e3      	bne.n	70100d00 <SystemCoreClockUpdate+0x180>
70100d38:	4b07      	ldr	r3, [pc, #28]	@ (70100d58 <SystemCoreClockUpdate+0x1d8>)
70100d3a:	e7aa      	b.n	70100c92 <SystemCoreClockUpdate+0x112>
70100d3c:	56028000 	.word	0x56028000
70100d40:	03d09000 	.word	0x03d09000
70100d44:	34000000 	.word	0x34000000
70100d48:	003d0900 	.word	0x003d0900
70100d4c:	00f42400 	.word	0x00f42400
70100d50:	02dc6c00 	.word	0x02dc6c00
70100d54:	33800000 	.word	0x33800000
70100d58:	00bb8000 	.word	0x00bb8000

70100d5c <__acle_se_SECURE_SystemCoreClockUpdate>:
70100d5c:	ed6d cf81 	vstr	FPCXTNS, [sp, #-4]!
70100d60:	b500      	push	{lr}
70100d62:	f7ff ff0d 	bl	70100b80 <SystemCoreClockUpdate>
70100d66:	4b05      	ldr	r3, [pc, #20]	@ (70100d7c <__acle_se_SECURE_SystemCoreClockUpdate+0x20>)
70100d68:	f85d eb04 	ldr.w	lr, [sp], #4
70100d6c:	6818      	ldr	r0, [r3, #0]
70100d6e:	ec9f 0a10 	vscclrm	{s0-s15, VPR}
70100d72:	e89f 900e 	clrm	{r1, r2, r3, ip, APSR}
70100d76:	ecfd cf81 	vldr	FPCXTNS, [sp], #4
70100d7a:	4774      	bxns	lr
70100d7c:	34000000 	.word	0x34000000

70100d80 <HAL_InitTick>:
70100d80:	b538      	push	{r3, r4, r5, lr}
70100d82:	4b0f      	ldr	r3, [pc, #60]	@ (70100dc0 <HAL_InitTick+0x40>)
70100d84:	4605      	mov	r5, r0
70100d86:	781a      	ldrb	r2, [r3, #0]
70100d88:	b90a      	cbnz	r2, 70100d8e <HAL_InitTick+0xe>
70100d8a:	2001      	movs	r0, #1
70100d8c:	bd38      	pop	{r3, r4, r5, pc}
70100d8e:	f44f 737a 	mov.w	r3, #1000	@ 0x3e8
70100d92:	fbb3 f3f2 	udiv	r3, r3, r2
70100d96:	4a0b      	ldr	r2, [pc, #44]	@ (70100dc4 <HAL_InitTick+0x44>)
70100d98:	6810      	ldr	r0, [r2, #0]
70100d9a:	fbb0 f0f3 	udiv	r0, r0, r3
70100d9e:	f000 f88d 	bl	70100ebc <HAL_SYSTICK_Config>
70100da2:	4604      	mov	r4, r0
70100da4:	2800      	cmp	r0, #0
70100da6:	d1f0      	bne.n	70100d8a <HAL_InitTick+0xa>
70100da8:	2d0f      	cmp	r5, #15
70100daa:	d8ee      	bhi.n	70100d8a <HAL_InitTick+0xa>
70100dac:	4602      	mov	r2, r0
70100dae:	4629      	mov	r1, r5
70100db0:	f04f 30ff 	mov.w	r0, #4294967295
70100db4:	f000 f852 	bl	70100e5c <HAL_NVIC_SetPriority>
70100db8:	4b03      	ldr	r3, [pc, #12]	@ (70100dc8 <HAL_InitTick+0x48>)
70100dba:	4620      	mov	r0, r4
70100dbc:	601d      	str	r5, [r3, #0]
70100dbe:	e7e5      	b.n	70100d8c <HAL_InitTick+0xc>
70100dc0:	34000004 	.word	0x34000004
70100dc4:	34000000 	.word	0x34000000
70100dc8:	34000008 	.word	0x34000008

70100dcc <HAL_Init>:
70100dcc:	b510      	push	{r4, lr}
70100dce:	2003      	movs	r0, #3
70100dd0:	f000 f832 	bl	70100e38 <HAL_NVIC_SetPriorityGrouping>
70100dd4:	f7ff fed4 	bl	70100b80 <SystemCoreClockUpdate>
70100dd8:	200f      	movs	r0, #15
70100dda:	f7ff ffd1 	bl	70100d80 <HAL_InitTick>
70100dde:	4604      	mov	r4, r0
70100de0:	b918      	cbnz	r0, 70100dea <HAL_Init+0x1e>
70100de2:	f7ff fde1 	bl	701009a8 <HAL_MspInit>
70100de6:	4620      	mov	r0, r4
70100de8:	bd10      	pop	{r4, pc}
70100dea:	2401      	movs	r4, #1
70100dec:	e7fb      	b.n	70100de6 <HAL_Init+0x1a>
	...

70100df0 <HAL_IncTick>:
70100df0:	4a03      	ldr	r2, [pc, #12]	@ (70100e00 <HAL_IncTick+0x10>)
70100df2:	4b04      	ldr	r3, [pc, #16]	@ (70100e04 <HAL_IncTick+0x14>)
70100df4:	6811      	ldr	r1, [r2, #0]
70100df6:	781b      	ldrb	r3, [r3, #0]
70100df8:	440b      	add	r3, r1
70100dfa:	6013      	str	r3, [r2, #0]
70100dfc:	4770      	bx	lr
70100dfe:	bf00      	nop
70100e00:	34000120 	.word	0x34000120
70100e04:	34000004 	.word	0x34000004

70100e08 <HAL_GetTick>:
70100e08:	4b01      	ldr	r3, [pc, #4]	@ (70100e10 <HAL_GetTick+0x8>)
70100e0a:	6818      	ldr	r0, [r3, #0]
70100e0c:	4770      	bx	lr
70100e0e:	bf00      	nop
70100e10:	34000120 	.word	0x34000120

70100e14 <HAL_Delay>:
70100e14:	b538      	push	{r3, r4, r5, lr}
70100e16:	4604      	mov	r4, r0
70100e18:	f7ff fff6 	bl	70100e08 <HAL_GetTick>
70100e1c:	4605      	mov	r5, r0
70100e1e:	1c63      	adds	r3, r4, #1
70100e20:	bf1e      	ittt	ne
70100e22:	4b04      	ldrne	r3, [pc, #16]	@ (70100e34 <HAL_Delay+0x20>)
70100e24:	781b      	ldrbne	r3, [r3, #0]
70100e26:	18e4      	addne	r4, r4, r3
70100e28:	f7ff ffee 	bl	70100e08 <HAL_GetTick>
70100e2c:	1b43      	subs	r3, r0, r5
70100e2e:	42a3      	cmp	r3, r4
70100e30:	d3fa      	bcc.n	70100e28 <HAL_Delay+0x14>
70100e32:	bd38      	pop	{r3, r4, r5, pc}
70100e34:	34000004 	.word	0x34000004

70100e38 <HAL_NVIC_SetPriorityGrouping>:
70100e38:	4907      	ldr	r1, [pc, #28]	@ (70100e58 <HAL_NVIC_SetPriorityGrouping+0x20>)
70100e3a:	0203      	lsls	r3, r0, #8
70100e3c:	68ca      	ldr	r2, [r1, #12]
70100e3e:	f403 63e0 	and.w	r3, r3, #1792	@ 0x700
70100e42:	f422 62e0 	bic.w	r2, r2, #1792	@ 0x700
70100e46:	0412      	lsls	r2, r2, #16
70100e48:	0c12      	lsrs	r2, r2, #16
70100e4a:	4313      	orrs	r3, r2
70100e4c:	f043 63bf 	orr.w	r3, r3, #100139008	@ 0x5f80000
70100e50:	f443 3300 	orr.w	r3, r3, #131072	@ 0x20000
70100e54:	60cb      	str	r3, [r1, #12]
70100e56:	4770      	bx	lr
70100e58:	e000ed00 	.word	0xe000ed00

70100e5c <HAL_NVIC_SetPriority>:
70100e5c:	4b15      	ldr	r3, [pc, #84]	@ (70100eb4 <HAL_NVIC_SetPriority+0x58>)
70100e5e:	b530      	push	{r4, r5, lr}
70100e60:	68dc      	ldr	r4, [r3, #12]
70100e62:	f3c4 2402 	ubfx	r4, r4, #8, #3
70100e66:	f1c4 0307 	rsb	r3, r4, #7
70100e6a:	1d25      	adds	r5, r4, #4
70100e6c:	2b04      	cmp	r3, #4
70100e6e:	bf28      	it	cs
70100e70:	2304      	movcs	r3, #4
70100e72:	2d06      	cmp	r5, #6
70100e74:	f04f 35ff 	mov.w	r5, #4294967295
70100e78:	bf94      	ite	ls
70100e7a:	2400      	movls	r4, #0
70100e7c:	3c03      	subhi	r4, #3
70100e7e:	fa05 f303 	lsl.w	r3, r5, r3
70100e82:	ea21 0303 	bic.w	r3, r1, r3
70100e86:	40a5      	lsls	r5, r4
70100e88:	ea22 0205 	bic.w	r2, r2, r5
70100e8c:	40a3      	lsls	r3, r4
70100e8e:	2800      	cmp	r0, #0
70100e90:	ea43 0302 	orr.w	r3, r3, r2
70100e94:	bfac      	ite	ge
70100e96:	f100 4060 	addge.w	r0, r0, #3758096384	@ 0xe0000000
70100e9a:	4a07      	ldrlt	r2, [pc, #28]	@ (70100eb8 <HAL_NVIC_SetPriority+0x5c>)
70100e9c:	ea4f 1303 	mov.w	r3, r3, lsl #4
70100ea0:	b2db      	uxtb	r3, r3
70100ea2:	bfab      	itete	ge
70100ea4:	f500 4061 	addge.w	r0, r0, #57600	@ 0xe100
70100ea8:	f000 000f 	andlt.w	r0, r0, #15
70100eac:	f880 3300 	strbge.w	r3, [r0, #768]	@ 0x300
70100eb0:	5413      	strblt	r3, [r2, r0]
70100eb2:	bd30      	pop	{r4, r5, pc}
70100eb4:	e000ed00 	.word	0xe000ed00
70100eb8:	e000ed14 	.word	0xe000ed14

70100ebc <HAL_SYSTICK_Config>:
70100ebc:	3801      	subs	r0, #1
70100ebe:	f1b0 7f80 	cmp.w	r0, #16777216	@ 0x1000000
70100ec2:	d20b      	bcs.n	70100edc <HAL_SYSTICK_Config+0x20>
70100ec4:	f04f 23e0 	mov.w	r3, #3758153728	@ 0xe000e000
70100ec8:	21f0      	movs	r1, #240	@ 0xf0
70100eca:	4a05      	ldr	r2, [pc, #20]	@ (70100ee0 <HAL_SYSTICK_Config+0x24>)
70100ecc:	6158      	str	r0, [r3, #20]
70100ece:	f882 1023 	strb.w	r1, [r2, #35]	@ 0x23
70100ed2:	2000      	movs	r0, #0
70100ed4:	2207      	movs	r2, #7
70100ed6:	6198      	str	r0, [r3, #24]
70100ed8:	611a      	str	r2, [r3, #16]
70100eda:	4770      	bx	lr
70100edc:	2001      	movs	r0, #1
70100ede:	4770      	bx	lr
70100ee0:	e000ed00 	.word	0xe000ed00

70100ee4 <HAL_DCMIPP_PIPE_FrameEventCallback>:
70100ee4:	4770      	bx	lr

70100ee6 <HAL_DCMIPP_PIPE_VsyncEventCallback>:
70100ee6:	4770      	bx	lr

70100ee8 <HAL_DCMIPP_PIPE_LineEventCallback>:
70100ee8:	4770      	bx	lr

70100eea <HAL_DCMIPP_PIPE_LimitEventCallback>:
70100eea:	4770      	bx	lr

70100eec <HAL_DCMIPP_PIPE_ErrorCallback>:
70100eec:	4770      	bx	lr

70100eee <HAL_DCMIPP_ErrorCallback>:
70100eee:	4770      	bx	lr

70100ef0 <HAL_DCMIPP_IRQHandler>:
70100ef0:	6803      	ldr	r3, [r0, #0]
70100ef2:	b570      	push	{r4, r5, r6, lr}
70100ef4:	f8d3 63f8 	ldr.w	r6, [r3, #1016]	@ 0x3f8
70100ef8:	4604      	mov	r4, r0
70100efa:	0472      	lsls	r2, r6, #17
70100efc:	f8d3 53f0 	ldr.w	r5, [r3, #1008]	@ 0x3f0
70100f00:	d512      	bpl.n	70100f28 <HAL_DCMIPP_IRQHandler+0x38>
70100f02:	0469      	lsls	r1, r5, #17
70100f04:	d510      	bpl.n	70100f28 <HAL_DCMIPP_IRQHandler+0x38>
70100f06:	f8d3 23f0 	ldr.w	r2, [r3, #1008]	@ 0x3f0
70100f0a:	2100      	movs	r1, #0
70100f0c:	f422 4280 	bic.w	r2, r2, #16384	@ 0x4000
70100f10:	f8c3 23f0 	str.w	r2, [r3, #1008]	@ 0x3f0
70100f14:	6882      	ldr	r2, [r0, #8]
70100f16:	f042 0204 	orr.w	r2, r2, #4
70100f1a:	6082      	str	r2, [r0, #8]
70100f1c:	f44f 4280 	mov.w	r2, #16384	@ 0x4000
70100f20:	f8c3 23fc 	str.w	r2, [r3, #1020]	@ 0x3fc
70100f24:	f7ff ffe1 	bl	70100eea <HAL_DCMIPP_PIPE_LimitEventCallback>
70100f28:	0572      	lsls	r2, r6, #21
70100f2a:	d50a      	bpl.n	70100f42 <HAL_DCMIPP_IRQHandler+0x52>
70100f2c:	056b      	lsls	r3, r5, #21
70100f2e:	d508      	bpl.n	70100f42 <HAL_DCMIPP_IRQHandler+0x52>
70100f30:	f44f 6280 	mov.w	r2, #1024	@ 0x400
70100f34:	6823      	ldr	r3, [r4, #0]
70100f36:	2100      	movs	r1, #0
70100f38:	4620      	mov	r0, r4
70100f3a:	f8c3 23fc 	str.w	r2, [r3, #1020]	@ 0x3fc
70100f3e:	f7ff ffd2 	bl	70100ee6 <HAL_DCMIPP_PIPE_VsyncEventCallback>
70100f42:	05b0      	lsls	r0, r6, #22
70100f44:	d516      	bpl.n	70100f74 <HAL_DCMIPP_IRQHandler+0x84>
70100f46:	05a9      	lsls	r1, r5, #22
70100f48:	d514      	bpl.n	70100f74 <HAL_DCMIPP_IRQHandler+0x84>
70100f4a:	6823      	ldr	r3, [r4, #0]
70100f4c:	f8d3 2500 	ldr.w	r2, [r3, #1280]	@ 0x500
70100f50:	0752      	lsls	r2, r2, #29
70100f52:	d507      	bpl.n	70100f64 <HAL_DCMIPP_IRQHandler+0x74>
70100f54:	f8d3 23f0 	ldr.w	r2, [r3, #1008]	@ 0x3f0
70100f58:	f422 4206 	bic.w	r2, r2, #34304	@ 0x8600
70100f5c:	f8c3 23f0 	str.w	r2, [r3, #1008]	@ 0x3f0
70100f60:	2201      	movs	r2, #1
70100f62:	7162      	strb	r2, [r4, #5]
70100f64:	f44f 7200 	mov.w	r2, #512	@ 0x200
70100f68:	2100      	movs	r1, #0
70100f6a:	4620      	mov	r0, r4
70100f6c:	f8c3 23fc 	str.w	r2, [r3, #1020]	@ 0x3fc
70100f70:	f7ff ffb8 	bl	70100ee4 <HAL_DCMIPP_PIPE_FrameEventCallback>
70100f74:	05f3      	lsls	r3, r6, #23
70100f76:	d50a      	bpl.n	70100f8e <HAL_DCMIPP_IRQHandler+0x9e>
70100f78:	05e8      	lsls	r0, r5, #23
70100f7a:	d508      	bpl.n	70100f8e <HAL_DCMIPP_IRQHandler+0x9e>
70100f7c:	f44f 7280 	mov.w	r2, #256	@ 0x100
70100f80:	6823      	ldr	r3, [r4, #0]
70100f82:	2100      	movs	r1, #0
70100f84:	4620      	mov	r0, r4
70100f86:	f8c3 23fc 	str.w	r2, [r3, #1020]	@ 0x3fc
70100f8a:	f7ff ffad 	bl	70100ee8 <HAL_DCMIPP_PIPE_LineEventCallback>
70100f8e:	0431      	lsls	r1, r6, #16
70100f90:	d516      	bpl.n	70100fc0 <HAL_DCMIPP_IRQHandler+0xd0>
70100f92:	042a      	lsls	r2, r5, #16
70100f94:	d514      	bpl.n	70100fc0 <HAL_DCMIPP_IRQHandler+0xd0>
70100f96:	6823      	ldr	r3, [r4, #0]
70100f98:	2100      	movs	r1, #0
70100f9a:	f8d3 23f0 	ldr.w	r2, [r3, #1008]	@ 0x3f0
70100f9e:	4620      	mov	r0, r4
70100fa0:	f422 4200 	bic.w	r2, r2, #32768	@ 0x8000
70100fa4:	f8c3 23f0 	str.w	r2, [r3, #1008]	@ 0x3f0
70100fa8:	68a2      	ldr	r2, [r4, #8]
70100faa:	f042 0208 	orr.w	r2, r2, #8
70100fae:	60a2      	str	r2, [r4, #8]
70100fb0:	f44f 4200 	mov.w	r2, #32768	@ 0x8000
70100fb4:	f8c3 23fc 	str.w	r2, [r3, #1020]	@ 0x3fc
70100fb8:	2304      	movs	r3, #4
70100fba:	7163      	strb	r3, [r4, #5]
70100fbc:	f7ff ff96 	bl	70100eec <HAL_DCMIPP_PIPE_ErrorCallback>
70100fc0:	03f3      	lsls	r3, r6, #15
70100fc2:	d50a      	bpl.n	70100fda <HAL_DCMIPP_IRQHandler+0xea>
70100fc4:	03e8      	lsls	r0, r5, #15
70100fc6:	d508      	bpl.n	70100fda <HAL_DCMIPP_IRQHandler+0xea>
70100fc8:	f44f 3280 	mov.w	r2, #65536	@ 0x10000
70100fcc:	6823      	ldr	r3, [r4, #0]
70100fce:	2101      	movs	r1, #1
70100fd0:	4620      	mov	r0, r4
70100fd2:	f8c3 23fc 	str.w	r2, [r3, #1020]	@ 0x3fc
70100fd6:	f7ff ff87 	bl	70100ee8 <HAL_DCMIPP_PIPE_LineEventCallback>
70100fda:	0371      	lsls	r1, r6, #13
70100fdc:	d50a      	bpl.n	70100ff4 <HAL_DCMIPP_IRQHandler+0x104>
70100fde:	036a      	lsls	r2, r5, #13
70100fe0:	d508      	bpl.n	70100ff4 <HAL_DCMIPP_IRQHandler+0x104>
70100fe2:	f44f 2280 	mov.w	r2, #262144	@ 0x40000
70100fe6:	6823      	ldr	r3, [r4, #0]
70100fe8:	2101      	movs	r1, #1
70100fea:	4620      	mov	r0, r4
70100fec:	f8c3 23fc 	str.w	r2, [r3, #1020]	@ 0x3fc
70100ff0:	f7ff ff79 	bl	70100ee6 <HAL_DCMIPP_PIPE_VsyncEventCallback>
70100ff4:	03b3      	lsls	r3, r6, #14
70100ff6:	d516      	bpl.n	70101026 <HAL_DCMIPP_IRQHandler+0x136>
70100ff8:	03a8      	lsls	r0, r5, #14
70100ffa:	d514      	bpl.n	70101026 <HAL_DCMIPP_IRQHandler+0x136>
70100ffc:	6823      	ldr	r3, [r4, #0]
70100ffe:	f8d3 2900 	ldr.w	r2, [r3, #2304]	@ 0x900
70101002:	0751      	lsls	r1, r2, #29
70101004:	d507      	bpl.n	70101016 <HAL_DCMIPP_IRQHandler+0x126>
70101006:	f8d3 23f0 	ldr.w	r2, [r3, #1008]	@ 0x3f0
7010100a:	f422 0206 	bic.w	r2, r2, #8781824	@ 0x860000
7010100e:	f8c3 23f0 	str.w	r2, [r3, #1008]	@ 0x3f0
70101012:	2201      	movs	r2, #1
70101014:	71a2      	strb	r2, [r4, #6]
70101016:	f44f 3200 	mov.w	r2, #131072	@ 0x20000
7010101a:	2101      	movs	r1, #1
7010101c:	4620      	mov	r0, r4
7010101e:	f8c3 23fc 	str.w	r2, [r3, #1020]	@ 0x3fc
70101022:	f7ff ff5f 	bl	70100ee4 <HAL_DCMIPP_PIPE_FrameEventCallback>
70101026:	0232      	lsls	r2, r6, #8
70101028:	d516      	bpl.n	70101058 <HAL_DCMIPP_IRQHandler+0x168>
7010102a:	022b      	lsls	r3, r5, #8
7010102c:	d514      	bpl.n	70101058 <HAL_DCMIPP_IRQHandler+0x168>
7010102e:	6823      	ldr	r3, [r4, #0]
70101030:	2101      	movs	r1, #1
70101032:	f8d3 23f0 	ldr.w	r2, [r3, #1008]	@ 0x3f0
70101036:	4620      	mov	r0, r4
70101038:	f422 0200 	bic.w	r2, r2, #8388608	@ 0x800000
7010103c:	f8c3 23f0 	str.w	r2, [r3, #1008]	@ 0x3f0
70101040:	68a2      	ldr	r2, [r4, #8]
70101042:	f042 0210 	orr.w	r2, r2, #16
70101046:	60a2      	str	r2, [r4, #8]
70101048:	f44f 0200 	mov.w	r2, #8388608	@ 0x800000
7010104c:	f8c3 23fc 	str.w	r2, [r3, #1020]	@ 0x3fc
70101050:	2304      	movs	r3, #4
70101052:	71a3      	strb	r3, [r4, #6]
70101054:	f7ff ff4a 	bl	70100eec <HAL_DCMIPP_PIPE_ErrorCallback>
70101058:	01f0      	lsls	r0, r6, #7
7010105a:	d50a      	bpl.n	70101072 <HAL_DCMIPP_IRQHandler+0x182>
7010105c:	01e9      	lsls	r1, r5, #7
7010105e:	d508      	bpl.n	70101072 <HAL_DCMIPP_IRQHandler+0x182>
70101060:	f04f 7280 	mov.w	r2, #16777216	@ 0x1000000
70101064:	6823      	ldr	r3, [r4, #0]
70101066:	2102      	movs	r1, #2
70101068:	4620      	mov	r0, r4
7010106a:	f8c3 23fc 	str.w	r2, [r3, #1020]	@ 0x3fc
7010106e:	f7ff ff3b 	bl	70100ee8 <HAL_DCMIPP_PIPE_LineEventCallback>
70101072:	0172      	lsls	r2, r6, #5
70101074:	d50a      	bpl.n	7010108c <HAL_DCMIPP_IRQHandler+0x19c>
70101076:	016b      	lsls	r3, r5, #5
70101078:	d508      	bpl.n	7010108c <HAL_DCMIPP_IRQHandler+0x19c>
7010107a:	f04f 6280 	mov.w	r2, #67108864	@ 0x4000000
7010107e:	6823      	ldr	r3, [r4, #0]
70101080:	2102      	movs	r1, #2
70101082:	4620      	mov	r0, r4
70101084:	f8c3 23fc 	str.w	r2, [r3, #1020]	@ 0x3fc
70101088:	f7ff ff2d 	bl	70100ee6 <HAL_DCMIPP_PIPE_VsyncEventCallback>
7010108c:	01b0      	lsls	r0, r6, #6
7010108e:	d516      	bpl.n	701010be <HAL_DCMIPP_IRQHandler+0x1ce>
70101090:	01a9      	lsls	r1, r5, #6
70101092:	d514      	bpl.n	701010be <HAL_DCMIPP_IRQHandler+0x1ce>
70101094:	6823      	ldr	r3, [r4, #0]
70101096:	f8d3 2d00 	ldr.w	r2, [r3, #3328]	@ 0xd00
7010109a:	0752      	lsls	r2, r2, #29
7010109c:	d507      	bpl.n	701010ae <HAL_DCMIPP_IRQHandler+0x1be>
7010109e:	f8d3 23f0 	ldr.w	r2, [r3, #1008]	@ 0x3f0
701010a2:	f022 4206 	bic.w	r2, r2, #2248146944	@ 0x86000000
701010a6:	f8c3 23f0 	str.w	r2, [r3, #1008]	@ 0x3f0
701010aa:	2201      	movs	r2, #1
701010ac:	71e2      	strb	r2, [r4, #7]
701010ae:	f04f 7200 	mov.w	r2, #33554432	@ 0x2000000
701010b2:	2102      	movs	r1, #2
701010b4:	4620      	mov	r0, r4
701010b6:	f8c3 23fc 	str.w	r2, [r3, #1020]	@ 0x3fc
701010ba:	f7ff ff13 	bl	70100ee4 <HAL_DCMIPP_PIPE_FrameEventCallback>
701010be:	2e00      	cmp	r6, #0
701010c0:	da16      	bge.n	701010f0 <HAL_DCMIPP_IRQHandler+0x200>
701010c2:	2d00      	cmp	r5, #0
701010c4:	da14      	bge.n	701010f0 <HAL_DCMIPP_IRQHandler+0x200>
701010c6:	6823      	ldr	r3, [r4, #0]
701010c8:	2102      	movs	r1, #2
701010ca:	f8d3 23f0 	ldr.w	r2, [r3, #1008]	@ 0x3f0
701010ce:	4620      	mov	r0, r4
701010d0:	f022 4200 	bic.w	r2, r2, #2147483648	@ 0x80000000
701010d4:	f8c3 23f0 	str.w	r2, [r3, #1008]	@ 0x3f0
701010d8:	68a2      	ldr	r2, [r4, #8]
701010da:	f042 0220 	orr.w	r2, r2, #32
701010de:	60a2      	str	r2, [r4, #8]
701010e0:	f04f 4200 	mov.w	r2, #2147483648	@ 0x80000000
701010e4:	f8c3 23fc 	str.w	r2, [r3, #1020]	@ 0x3fc
701010e8:	2304      	movs	r3, #4
701010ea:	71e3      	strb	r3, [r4, #7]
701010ec:	f7ff fefe 	bl	70100eec <HAL_DCMIPP_PIPE_ErrorCallback>
701010f0:	0670      	lsls	r0, r6, #25
701010f2:	d514      	bpl.n	7010111e <HAL_DCMIPP_IRQHandler+0x22e>
701010f4:	0669      	lsls	r1, r5, #25
701010f6:	d512      	bpl.n	7010111e <HAL_DCMIPP_IRQHandler+0x22e>
701010f8:	6823      	ldr	r3, [r4, #0]
701010fa:	4620      	mov	r0, r4
701010fc:	f8d3 23f0 	ldr.w	r2, [r3, #1008]	@ 0x3f0
70101100:	f022 0240 	bic.w	r2, r2, #64	@ 0x40
70101104:	f8c3 23f0 	str.w	r2, [r3, #1008]	@ 0x3f0
70101108:	68a2      	ldr	r2, [r4, #8]
7010110a:	f042 0202 	orr.w	r2, r2, #2
7010110e:	60a2      	str	r2, [r4, #8]
70101110:	2240      	movs	r2, #64	@ 0x40
70101112:	f8c3 23fc 	str.w	r2, [r3, #1020]	@ 0x3fc
70101116:	2304      	movs	r3, #4
70101118:	7123      	strb	r3, [r4, #4]
7010111a:	f7ff fee8 	bl	70100eee <HAL_DCMIPP_ErrorCallback>
7010111e:	06b2      	lsls	r2, r6, #26
70101120:	d514      	bpl.n	7010114c <HAL_DCMIPP_IRQHandler+0x25c>
70101122:	06ab      	lsls	r3, r5, #26
70101124:	d512      	bpl.n	7010114c <HAL_DCMIPP_IRQHandler+0x25c>
70101126:	6823      	ldr	r3, [r4, #0]
70101128:	4620      	mov	r0, r4
7010112a:	f8d3 23f0 	ldr.w	r2, [r3, #1008]	@ 0x3f0
7010112e:	f022 0220 	bic.w	r2, r2, #32
70101132:	f8c3 23f0 	str.w	r2, [r3, #1008]	@ 0x3f0
70101136:	68a2      	ldr	r2, [r4, #8]
70101138:	f042 0201 	orr.w	r2, r2, #1
7010113c:	60a2      	str	r2, [r4, #8]
7010113e:	2220      	movs	r2, #32
70101140:	f8c3 23fc 	str.w	r2, [r3, #1020]	@ 0x3fc
70101144:	2304      	movs	r3, #4
70101146:	7123      	strb	r3, [r4, #4]
70101148:	f7ff fed1 	bl	70100eee <HAL_DCMIPP_ErrorCallback>
7010114c:	bd70      	pop	{r4, r5, r6, pc}

7010114e <HAL_DCMIPP_CSI_LineErrorCallback>:
7010114e:	4770      	bx	lr

70101150 <HAL_DCMIPP_CSI_ClockChangerFifoFullEventCallback>:
70101150:	4770      	bx	lr

70101152 <HAL_DCMIPP_CSI_ShortPacketDetectionEventCallback>:
70101152:	4770      	bx	lr

70101154 <HAL_DCMIPP_CSI_EndOfFrameEventCallback>:
70101154:	4770      	bx	lr

70101156 <HAL_DCMIPP_CSI_StartOfFrameEventCallback>:
70101156:	4770      	bx	lr

70101158 <HAL_DCMIPP_CSI_TimerCounterEventCallback>:
70101158:	4770      	bx	lr

7010115a <HAL_DCMIPP_CSI_LineByteEventCallback>:
7010115a:	4770      	bx	lr

7010115c <HAL_DCMIPP_CSI_IRQHandler>:
7010115c:	4bb5      	ldr	r3, [pc, #724]	@ (70101434 <HAL_DCMIPP_CSI_IRQHandler+0x2d8>)
7010115e:	e92d 41f0 	stmdb	sp!, {r4, r5, r6, r7, r8, lr}
70101162:	f8d3 6090 	ldr.w	r6, [r3, #144]	@ 0x90
70101166:	4604      	mov	r4, r0
70101168:	02b2      	lsls	r2, r6, #10
7010116a:	f8d3 8094 	ldr.w	r8, [r3, #148]	@ 0x94
7010116e:	f8d3 5080 	ldr.w	r5, [r3, #128]	@ 0x80
70101172:	f8d3 7084 	ldr.w	r7, [r3, #132]	@ 0x84
70101176:	d50d      	bpl.n	70101194 <HAL_DCMIPP_CSI_IRQHandler+0x38>
70101178:	02a9      	lsls	r1, r5, #10
7010117a:	d50b      	bpl.n	70101194 <HAL_DCMIPP_CSI_IRQHandler+0x38>
7010117c:	f8d3 2080 	ldr.w	r2, [r3, #128]	@ 0x80
70101180:	f422 1200 	bic.w	r2, r2, #2097152	@ 0x200000
70101184:	f8c3 2080 	str.w	r2, [r3, #128]	@ 0x80
70101188:	f44f 1200 	mov.w	r2, #2097152	@ 0x200000
7010118c:	f8c3 2100 	str.w	r2, [r3, #256]	@ 0x100
70101190:	f7ff ffde 	bl	70101150 <HAL_DCMIPP_CSI_ClockChangerFifoFullEventCallback>
70101194:	0732      	lsls	r2, r6, #28
70101196:	d515      	bpl.n	701011c4 <HAL_DCMIPP_CSI_IRQHandler+0x68>
70101198:	072b      	lsls	r3, r5, #28
7010119a:	d513      	bpl.n	701011c4 <HAL_DCMIPP_CSI_IRQHandler+0x68>
7010119c:	6823      	ldr	r3, [r4, #0]
7010119e:	2103      	movs	r1, #3
701011a0:	f8d3 3500 	ldr.w	r3, [r3, #1280]	@ 0x500
701011a4:	4620      	mov	r0, r4
701011a6:	f013 0f04 	tst.w	r3, #4
701011aa:	4ba2      	ldr	r3, [pc, #648]	@ (70101434 <HAL_DCMIPP_CSI_IRQHandler+0x2d8>)
701011ac:	bf1e      	ittt	ne
701011ae:	f8d3 2080 	ldrne.w	r2, [r3, #128]	@ 0x80
701011b2:	f022 0208 	bicne.w	r2, r2, #8
701011b6:	f8c3 2080 	strne.w	r2, [r3, #128]	@ 0x80
701011ba:	2208      	movs	r2, #8
701011bc:	f8c3 2100 	str.w	r2, [r3, #256]	@ 0x100
701011c0:	f7ff ffcb 	bl	7010115a <HAL_DCMIPP_CSI_LineByteEventCallback>
701011c4:	0770      	lsls	r0, r6, #29
701011c6:	d515      	bpl.n	701011f4 <HAL_DCMIPP_CSI_IRQHandler+0x98>
701011c8:	0769      	lsls	r1, r5, #29
701011ca:	d513      	bpl.n	701011f4 <HAL_DCMIPP_CSI_IRQHandler+0x98>
701011cc:	6823      	ldr	r3, [r4, #0]
701011ce:	2102      	movs	r1, #2
701011d0:	f8d3 3500 	ldr.w	r3, [r3, #1280]	@ 0x500
701011d4:	4620      	mov	r0, r4
701011d6:	f013 0f04 	tst.w	r3, #4
701011da:	4b96      	ldr	r3, [pc, #600]	@ (70101434 <HAL_DCMIPP_CSI_IRQHandler+0x2d8>)
701011dc:	bf1e      	ittt	ne
701011de:	f8d3 2080 	ldrne.w	r2, [r3, #128]	@ 0x80
701011e2:	f022 0204 	bicne.w	r2, r2, #4
701011e6:	f8c3 2080 	strne.w	r2, [r3, #128]	@ 0x80
701011ea:	2204      	movs	r2, #4
701011ec:	f8c3 2100 	str.w	r2, [r3, #256]	@ 0x100
701011f0:	f7ff ffb3 	bl	7010115a <HAL_DCMIPP_CSI_LineByteEventCallback>
701011f4:	07b2      	lsls	r2, r6, #30
701011f6:	d515      	bpl.n	70101224 <HAL_DCMIPP_CSI_IRQHandler+0xc8>
701011f8:	07ab      	lsls	r3, r5, #30
701011fa:	d513      	bpl.n	70101224 <HAL_DCMIPP_CSI_IRQHandler+0xc8>
701011fc:	6823      	ldr	r3, [r4, #0]
701011fe:	2101      	movs	r1, #1
70101200:	f8d3 3500 	ldr.w	r3, [r3, #1280]	@ 0x500
70101204:	4620      	mov	r0, r4
70101206:	f013 0f04 	tst.w	r3, #4
7010120a:	4b8a      	ldr	r3, [pc, #552]	@ (70101434 <HAL_DCMIPP_CSI_IRQHandler+0x2d8>)
7010120c:	bf1e      	ittt	ne
7010120e:	f8d3 2080 	ldrne.w	r2, [r3, #128]	@ 0x80
70101212:	f022 0202 	bicne.w	r2, r2, #2
70101216:	f8c3 2080 	strne.w	r2, [r3, #128]	@ 0x80
7010121a:	2202      	movs	r2, #2
7010121c:	f8c3 2100 	str.w	r2, [r3, #256]	@ 0x100
70101220:	f7ff ff9b 	bl	7010115a <HAL_DCMIPP_CSI_LineByteEventCallback>
70101224:	07f0      	lsls	r0, r6, #31
70101226:	d515      	bpl.n	70101254 <HAL_DCMIPP_CSI_IRQHandler+0xf8>
70101228:	07e9      	lsls	r1, r5, #31
7010122a:	d513      	bpl.n	70101254 <HAL_DCMIPP_CSI_IRQHandler+0xf8>
7010122c:	6823      	ldr	r3, [r4, #0]
7010122e:	2100      	movs	r1, #0
70101230:	f8d3 3500 	ldr.w	r3, [r3, #1280]	@ 0x500
70101234:	4620      	mov	r0, r4
70101236:	f013 0f04 	tst.w	r3, #4
7010123a:	4b7e      	ldr	r3, [pc, #504]	@ (70101434 <HAL_DCMIPP_CSI_IRQHandler+0x2d8>)
7010123c:	bf1e      	ittt	ne
7010123e:	f8d3 2080 	ldrne.w	r2, [r3, #128]	@ 0x80
70101242:	f022 0201 	bicne.w	r2, r2, #1
70101246:	f8c3 2080 	strne.w	r2, [r3, #128]	@ 0x80
7010124a:	2201      	movs	r2, #1
7010124c:	f8c3 2100 	str.w	r2, [r3, #256]	@ 0x100
70101250:	f7ff ff83 	bl	7010115a <HAL_DCMIPP_CSI_LineByteEventCallback>
70101254:	0432      	lsls	r2, r6, #16
70101256:	d516      	bpl.n	70101286 <HAL_DCMIPP_CSI_IRQHandler+0x12a>
70101258:	042b      	lsls	r3, r5, #16
7010125a:	d514      	bpl.n	70101286 <HAL_DCMIPP_CSI_IRQHandler+0x12a>
7010125c:	6823      	ldr	r3, [r4, #0]
7010125e:	2103      	movs	r1, #3
70101260:	f8d3 3500 	ldr.w	r3, [r3, #1280]	@ 0x500
70101264:	4620      	mov	r0, r4
70101266:	f013 0f04 	tst.w	r3, #4
7010126a:	4b72      	ldr	r3, [pc, #456]	@ (70101434 <HAL_DCMIPP_CSI_IRQHandler+0x2d8>)
7010126c:	bf1e      	ittt	ne
7010126e:	f8d3 2080 	ldrne.w	r2, [r3, #128]	@ 0x80
70101272:	f422 4200 	bicne.w	r2, r2, #32768	@ 0x8000
70101276:	f8c3 2080 	strne.w	r2, [r3, #128]	@ 0x80
7010127a:	f44f 4200 	mov.w	r2, #32768	@ 0x8000
7010127e:	f8c3 2100 	str.w	r2, [r3, #256]	@ 0x100
70101282:	f7ff ff67 	bl	70101154 <HAL_DCMIPP_CSI_EndOfFrameEventCallback>
70101286:	0470      	lsls	r0, r6, #17
70101288:	d516      	bpl.n	701012b8 <HAL_DCMIPP_CSI_IRQHandler+0x15c>
7010128a:	0469      	lsls	r1, r5, #17
7010128c:	d514      	bpl.n	701012b8 <HAL_DCMIPP_CSI_IRQHandler+0x15c>
7010128e:	6823      	ldr	r3, [r4, #0]
70101290:	2102      	movs	r1, #2
70101292:	f8d3 3500 	ldr.w	r3, [r3, #1280]	@ 0x500
70101296:	4620      	mov	r0, r4
70101298:	f013 0f04 	tst.w	r3, #4
7010129c:	4b65      	ldr	r3, [pc, #404]	@ (70101434 <HAL_DCMIPP_CSI_IRQHandler+0x2d8>)
7010129e:	bf1e      	ittt	ne
701012a0:	f8d3 2080 	ldrne.w	r2, [r3, #128]	@ 0x80
701012a4:	f422 4280 	bicne.w	r2, r2, #16384	@ 0x4000
701012a8:	f8c3 2080 	strne.w	r2, [r3, #128]	@ 0x80
701012ac:	f44f 4280 	mov.w	r2, #16384	@ 0x4000
701012b0:	f8c3 2100 	str.w	r2, [r3, #256]	@ 0x100
701012b4:	f7ff ff4e 	bl	70101154 <HAL_DCMIPP_CSI_EndOfFrameEventCallback>
701012b8:	04b2      	lsls	r2, r6, #18
701012ba:	d516      	bpl.n	701012ea <HAL_DCMIPP_CSI_IRQHandler+0x18e>
701012bc:	04ab      	lsls	r3, r5, #18
701012be:	d514      	bpl.n	701012ea <HAL_DCMIPP_CSI_IRQHandler+0x18e>
701012c0:	6823      	ldr	r3, [r4, #0]
701012c2:	2101      	movs	r1, #1
701012c4:	f8d3 3500 	ldr.w	r3, [r3, #1280]	@ 0x500
701012c8:	4620      	mov	r0, r4
701012ca:	f013 0f04 	tst.w	r3, #4
701012ce:	4b59      	ldr	r3, [pc, #356]	@ (70101434 <HAL_DCMIPP_CSI_IRQHandler+0x2d8>)
701012d0:	bf1e      	ittt	ne
701012d2:	f8d3 2080 	ldrne.w	r2, [r3, #128]	@ 0x80
701012d6:	f422 5200 	bicne.w	r2, r2, #8192	@ 0x2000
701012da:	f8c3 2080 	strne.w	r2, [r3, #128]	@ 0x80
701012de:	f44f 5200 	mov.w	r2, #8192	@ 0x2000
701012e2:	f8c3 2100 	str.w	r2, [r3, #256]	@ 0x100
701012e6:	f7ff ff35 	bl	70101154 <HAL_DCMIPP_CSI_EndOfFrameEventCallback>
701012ea:	04f0      	lsls	r0, r6, #19
701012ec:	d516      	bpl.n	7010131c <HAL_DCMIPP_CSI_IRQHandler+0x1c0>
701012ee:	04e9      	lsls	r1, r5, #19
701012f0:	d514      	bpl.n	7010131c <HAL_DCMIPP_CSI_IRQHandler+0x1c0>
701012f2:	6823      	ldr	r3, [r4, #0]
701012f4:	2100      	movs	r1, #0
701012f6:	f8d3 3500 	ldr.w	r3, [r3, #1280]	@ 0x500
701012fa:	4620      	mov	r0, r4
701012fc:	f013 0f04 	tst.w	r3, #4
70101300:	4b4c      	ldr	r3, [pc, #304]	@ (70101434 <HAL_DCMIPP_CSI_IRQHandler+0x2d8>)
70101302:	bf1e      	ittt	ne
70101304:	f8d3 2080 	ldrne.w	r2, [r3, #128]	@ 0x80
70101308:	f422 5280 	bicne.w	r2, r2, #4096	@ 0x1000
7010130c:	f8c3 2080 	strne.w	r2, [r3, #128]	@ 0x80
70101310:	f44f 5280 	mov.w	r2, #4096	@ 0x1000
70101314:	f8c3 2100 	str.w	r2, [r3, #256]	@ 0x100
70101318:	f7ff ff1c 	bl	70101154 <HAL_DCMIPP_CSI_EndOfFrameEventCallback>
7010131c:	0532      	lsls	r2, r6, #20
7010131e:	d516      	bpl.n	7010134e <HAL_DCMIPP_CSI_IRQHandler+0x1f2>
70101320:	052b      	lsls	r3, r5, #20
70101322:	d514      	bpl.n	7010134e <HAL_DCMIPP_CSI_IRQHandler+0x1f2>
70101324:	6823      	ldr	r3, [r4, #0]
70101326:	2103      	movs	r1, #3
70101328:	f8d3 3500 	ldr.w	r3, [r3, #1280]	@ 0x500
7010132c:	4620      	mov	r0, r4
7010132e:	f013 0f04 	tst.w	r3, #4
70101332:	4b40      	ldr	r3, [pc, #256]	@ (70101434 <HAL_DCMIPP_CSI_IRQHandler+0x2d8>)
70101334:	bf1e      	ittt	ne
70101336:	f8d3 2080 	ldrne.w	r2, [r3, #128]	@ 0x80
7010133a:	f422 6200 	bicne.w	r2, r2, #2048	@ 0x800
7010133e:	f8c3 2080 	strne.w	r2, [r3, #128]	@ 0x80
70101342:	f44f 6200 	mov.w	r2, #2048	@ 0x800
70101346:	f8c3 2100 	str.w	r2, [r3, #256]	@ 0x100
7010134a:	f7ff ff04 	bl	70101156 <HAL_DCMIPP_CSI_StartOfFrameEventCallback>
7010134e:	0570      	lsls	r0, r6, #21
70101350:	d516      	bpl.n	70101380 <HAL_DCMIPP_CSI_IRQHandler+0x224>
70101352:	0569      	lsls	r1, r5, #21
70101354:	d514      	bpl.n	70101380 <HAL_DCMIPP_CSI_IRQHandler+0x224>
70101356:	6823      	ldr	r3, [r4, #0]
70101358:	2102      	movs	r1, #2
7010135a:	f8d3 3500 	ldr.w	r3, [r3, #1280]	@ 0x500
7010135e:	4620      	mov	r0, r4
70101360:	f013 0f04 	tst.w	r3, #4
70101364:	4b33      	ldr	r3, [pc, #204]	@ (70101434 <HAL_DCMIPP_CSI_IRQHandler+0x2d8>)
70101366:	bf1e      	ittt	ne
70101368:	f8d3 2080 	ldrne.w	r2, [r3, #128]	@ 0x80
7010136c:	f422 6280 	bicne.w	r2, r2, #1024	@ 0x400
70101370:	f8c3 2080 	strne.w	r2, [r3, #128]	@ 0x80
70101374:	f44f 6280 	mov.w	r2, #1024	@ 0x400
70101378:	f8c3 2100 	str.w	r2, [r3, #256]	@ 0x100
7010137c:	f7ff feeb 	bl	70101156 <HAL_DCMIPP_CSI_StartOfFrameEventCallback>
70101380:	05b2      	lsls	r2, r6, #22
70101382:	d516      	bpl.n	701013b2 <HAL_DCMIPP_CSI_IRQHandler+0x256>
70101384:	05ab      	lsls	r3, r5, #22
70101386:	d514      	bpl.n	701013b2 <HAL_DCMIPP_CSI_IRQHandler+0x256>
70101388:	6823      	ldr	r3, [r4, #0]
7010138a:	2101      	movs	r1, #1
7010138c:	f8d3 3500 	ldr.w	r3, [r3, #1280]	@ 0x500
70101390:	4620      	mov	r0, r4
70101392:	f013 0f04 	tst.w	r3, #4
70101396:	4b27      	ldr	r3, [pc, #156]	@ (70101434 <HAL_DCMIPP_CSI_IRQHandler+0x2d8>)
70101398:	bf1e      	ittt	ne
7010139a:	f8d3 2080 	ldrne.w	r2, [r3, #128]	@ 0x80
7010139e:	f422 7200 	bicne.w	r2, r2, #512	@ 0x200
701013a2:	f8c3 2080 	strne.w	r2, [r3, #128]	@ 0x80
701013a6:	f44f 7200 	mov.w	r2, #512	@ 0x200
701013aa:	f8c3 2100 	str.w	r2, [r3, #256]	@ 0x100
701013ae:	f7ff fed2 	bl	70101156 <HAL_DCMIPP_CSI_StartOfFrameEventCallback>
701013b2:	05f0      	lsls	r0, r6, #23
701013b4:	d516      	bpl.n	701013e4 <HAL_DCMIPP_CSI_IRQHandler+0x288>
701013b6:	05e9      	lsls	r1, r5, #23
701013b8:	d514      	bpl.n	701013e4 <HAL_DCMIPP_CSI_IRQHandler+0x288>
701013ba:	6823      	ldr	r3, [r4, #0]
701013bc:	2100      	movs	r1, #0
701013be:	f8d3 3500 	ldr.w	r3, [r3, #1280]	@ 0x500
701013c2:	4620      	mov	r0, r4
701013c4:	f013 0f04 	tst.w	r3, #4
701013c8:	4b1a      	ldr	r3, [pc, #104]	@ (70101434 <HAL_DCMIPP_CSI_IRQHandler+0x2d8>)
701013ca:	bf1e      	ittt	ne
701013cc:	f8d3 2080 	ldrne.w	r2, [r3, #128]	@ 0x80
701013d0:	f422 7280 	bicne.w	r2, r2, #256	@ 0x100
701013d4:	f8c3 2080 	strne.w	r2, [r3, #128]	@ 0x80
701013d8:	f44f 7280 	mov.w	r2, #256	@ 0x100
701013dc:	f8c3 2100 	str.w	r2, [r3, #256]	@ 0x100
701013e0:	f7ff feb9 	bl	70101156 <HAL_DCMIPP_CSI_StartOfFrameEventCallback>
701013e4:	0632      	lsls	r2, r6, #24
701013e6:	d515      	bpl.n	70101414 <HAL_DCMIPP_CSI_IRQHandler+0x2b8>
701013e8:	062b      	lsls	r3, r5, #24
701013ea:	d513      	bpl.n	70101414 <HAL_DCMIPP_CSI_IRQHandler+0x2b8>
701013ec:	6823      	ldr	r3, [r4, #0]
701013ee:	2103      	movs	r1, #3
701013f0:	f8d3 3500 	ldr.w	r3, [r3, #1280]	@ 0x500
701013f4:	4620      	mov	r0, r4
701013f6:	f013 0f04 	tst.w	r3, #4
701013fa:	4b0e      	ldr	r3, [pc, #56]	@ (70101434 <HAL_DCMIPP_CSI_IRQHandler+0x2d8>)
701013fc:	bf1e      	ittt	ne
701013fe:	f8d3 2080 	ldrne.w	r2, [r3, #128]	@ 0x80
70101402:	f022 0280 	bicne.w	r2, r2, #128	@ 0x80
70101406:	f8c3 2080 	strne.w	r2, [r3, #128]	@ 0x80
7010140a:	2280      	movs	r2, #128	@ 0x80
7010140c:	f8c3 2100 	str.w	r2, [r3, #256]	@ 0x100
70101410:	f7ff fea2 	bl	70101158 <HAL_DCMIPP_CSI_TimerCounterEventCallback>
70101414:	0670      	lsls	r0, r6, #25
70101416:	d519      	bpl.n	7010144c <HAL_DCMIPP_CSI_IRQHandler+0x2f0>
70101418:	0669      	lsls	r1, r5, #25
7010141a:	d517      	bpl.n	7010144c <HAL_DCMIPP_CSI_IRQHandler+0x2f0>
7010141c:	6823      	ldr	r3, [r4, #0]
7010141e:	2102      	movs	r1, #2
70101420:	f8d3 3500 	ldr.w	r3, [r3, #1280]	@ 0x500
70101424:	4620      	mov	r0, r4
70101426:	f013 0f04 	tst.w	r3, #4
7010142a:	4b02      	ldr	r3, [pc, #8]	@ (70101434 <HAL_DCMIPP_CSI_IRQHandler+0x2d8>)
7010142c:	bf18      	it	ne
7010142e:	f8d3 2080 	ldrne.w	r2, [r3, #128]	@ 0x80
70101432:	e001      	b.n	70101438 <HAL_DCMIPP_CSI_IRQHandler+0x2dc>
70101434:	58006000 	.word	0x58006000
70101438:	bf1c      	itt	ne
7010143a:	f022 0240 	bicne.w	r2, r2, #64	@ 0x40
7010143e:	f8c3 2080 	strne.w	r2, [r3, #128]	@ 0x80
70101442:	2240      	movs	r2, #64	@ 0x40
70101444:	f8c3 2100 	str.w	r2, [r3, #256]	@ 0x100
70101448:	f7ff fe86 	bl	70101158 <HAL_DCMIPP_CSI_TimerCounterEventCallback>
7010144c:	06b2      	lsls	r2, r6, #26
7010144e:	d515      	bpl.n	7010147c <HAL_DCMIPP_CSI_IRQHandler+0x320>
70101450:	06ab      	lsls	r3, r5, #26
70101452:	d513      	bpl.n	7010147c <HAL_DCMIPP_CSI_IRQHandler+0x320>
70101454:	6823      	ldr	r3, [r4, #0]
70101456:	2101      	movs	r1, #1
70101458:	f8d3 3500 	ldr.w	r3, [r3, #1280]	@ 0x500
7010145c:	4620      	mov	r0, r4
7010145e:	f013 0f04 	tst.w	r3, #4
70101462:	4bb9      	ldr	r3, [pc, #740]	@ (70101748 <HAL_DCMIPP_CSI_IRQHandler+0x5ec>)
70101464:	bf1e      	ittt	ne
70101466:	f8d3 2080 	ldrne.w	r2, [r3, #128]	@ 0x80
7010146a:	f022 0220 	bicne.w	r2, r2, #32
7010146e:	f8c3 2080 	strne.w	r2, [r3, #128]	@ 0x80
70101472:	2220      	movs	r2, #32
70101474:	f8c3 2100 	str.w	r2, [r3, #256]	@ 0x100
70101478:	f7ff fe6e 	bl	70101158 <HAL_DCMIPP_CSI_TimerCounterEventCallback>
7010147c:	06f0      	lsls	r0, r6, #27
7010147e:	d515      	bpl.n	701014ac <HAL_DCMIPP_CSI_IRQHandler+0x350>
70101480:	06e9      	lsls	r1, r5, #27
70101482:	d513      	bpl.n	701014ac <HAL_DCMIPP_CSI_IRQHandler+0x350>
70101484:	6823      	ldr	r3, [r4, #0]
70101486:	2100      	movs	r1, #0
70101488:	f8d3 3500 	ldr.w	r3, [r3, #1280]	@ 0x500
7010148c:	4620      	mov	r0, r4
7010148e:	f013 0f04 	tst.w	r3, #4
70101492:	4bad      	ldr	r3, [pc, #692]	@ (70101748 <HAL_DCMIPP_CSI_IRQHandler+0x5ec>)
70101494:	bf1e      	ittt	ne
70101496:	f8d3 2080 	ldrne.w	r2, [r3, #128]	@ 0x80
7010149a:	f022 0210 	bicne.w	r2, r2, #16
7010149e:	f8c3 2080 	strne.w	r2, [r3, #128]	@ 0x80
701014a2:	2210      	movs	r2, #16
701014a4:	f8c3 2100 	str.w	r2, [r3, #256]	@ 0x100
701014a8:	f7ff fe56 	bl	70101158 <HAL_DCMIPP_CSI_TimerCounterEventCallback>
701014ac:	0072      	lsls	r2, r6, #1
701014ae:	d513      	bpl.n	701014d8 <HAL_DCMIPP_CSI_IRQHandler+0x37c>
701014b0:	006b      	lsls	r3, r5, #1
701014b2:	d511      	bpl.n	701014d8 <HAL_DCMIPP_CSI_IRQHandler+0x37c>
701014b4:	4ba4      	ldr	r3, [pc, #656]	@ (70101748 <HAL_DCMIPP_CSI_IRQHandler+0x5ec>)
701014b6:	4620      	mov	r0, r4
701014b8:	f8d3 2080 	ldr.w	r2, [r3, #128]	@ 0x80
701014bc:	f022 4280 	bic.w	r2, r2, #1073741824	@ 0x40000000
701014c0:	f8c3 2080 	str.w	r2, [r3, #128]	@ 0x80
701014c4:	f04f 4280 	mov.w	r2, #1073741824	@ 0x40000000
701014c8:	f8c3 2100 	str.w	r2, [r3, #256]	@ 0x100
701014cc:	68a3      	ldr	r3, [r4, #8]
701014ce:	f443 7380 	orr.w	r3, r3, #256	@ 0x100
701014d2:	60a3      	str	r3, [r4, #8]
701014d4:	f7ff fd0b 	bl	70100eee <HAL_DCMIPP_ErrorCallback>
701014d8:	00b0      	lsls	r0, r6, #2
701014da:	d513      	bpl.n	70101504 <HAL_DCMIPP_CSI_IRQHandler+0x3a8>
701014dc:	00a9      	lsls	r1, r5, #2
701014de:	d511      	bpl.n	70101504 <HAL_DCMIPP_CSI_IRQHandler+0x3a8>
701014e0:	4b99      	ldr	r3, [pc, #612]	@ (70101748 <HAL_DCMIPP_CSI_IRQHandler+0x5ec>)
701014e2:	4620      	mov	r0, r4
701014e4:	f8d3 2080 	ldr.w	r2, [r3, #128]	@ 0x80
701014e8:	f022 5200 	bic.w	r2, r2, #536870912	@ 0x20000000
701014ec:	f8c3 2080 	str.w	r2, [r3, #128]	@ 0x80
701014f0:	f04f 5200 	mov.w	r2, #536870912	@ 0x20000000
701014f4:	f8c3 2100 	str.w	r2, [r3, #256]	@ 0x100
701014f8:	68a3      	ldr	r3, [r4, #8]
701014fa:	f443 7300 	orr.w	r3, r3, #512	@ 0x200
701014fe:	60a3      	str	r3, [r4, #8]
70101500:	f7ff fcf5 	bl	70100eee <HAL_DCMIPP_ErrorCallback>
70101504:	00f2      	lsls	r2, r6, #3
70101506:	d513      	bpl.n	70101530 <HAL_DCMIPP_CSI_IRQHandler+0x3d4>
70101508:	00eb      	lsls	r3, r5, #3
7010150a:	d511      	bpl.n	70101530 <HAL_DCMIPP_CSI_IRQHandler+0x3d4>
7010150c:	4b8e      	ldr	r3, [pc, #568]	@ (70101748 <HAL_DCMIPP_CSI_IRQHandler+0x5ec>)
7010150e:	4620      	mov	r0, r4
70101510:	f8d3 2080 	ldr.w	r2, [r3, #128]	@ 0x80
70101514:	f022 5280 	bic.w	r2, r2, #268435456	@ 0x10000000
70101518:	f8c3 2080 	str.w	r2, [r3, #128]	@ 0x80
7010151c:	f04f 5280 	mov.w	r2, #268435456	@ 0x10000000
70101520:	f8c3 2100 	str.w	r2, [r3, #256]	@ 0x100
70101524:	68a3      	ldr	r3, [r4, #8]
70101526:	f443 6380 	orr.w	r3, r3, #1024	@ 0x400
7010152a:	60a3      	str	r3, [r4, #8]
7010152c:	f7ff fcdf 	bl	70100eee <HAL_DCMIPP_ErrorCallback>
70101530:	0130      	lsls	r0, r6, #4
70101532:	d513      	bpl.n	7010155c <HAL_DCMIPP_CSI_IRQHandler+0x400>
70101534:	0129      	lsls	r1, r5, #4
70101536:	d511      	bpl.n	7010155c <HAL_DCMIPP_CSI_IRQHandler+0x400>
70101538:	4b83      	ldr	r3, [pc, #524]	@ (70101748 <HAL_DCMIPP_CSI_IRQHandler+0x5ec>)
7010153a:	4620      	mov	r0, r4
7010153c:	f8d3 2080 	ldr.w	r2, [r3, #128]	@ 0x80
70101540:	f022 6200 	bic.w	r2, r2, #134217728	@ 0x8000000
70101544:	f8c3 2080 	str.w	r2, [r3, #128]	@ 0x80
70101548:	f04f 6200 	mov.w	r2, #134217728	@ 0x8000000
7010154c:	f8c3 2100 	str.w	r2, [r3, #256]	@ 0x100
70101550:	68a3      	ldr	r3, [r4, #8]
70101552:	f443 6300 	orr.w	r3, r3, #2048	@ 0x800
70101556:	60a3      	str	r3, [r4, #8]
70101558:	f7ff fcc9 	bl	70100eee <HAL_DCMIPP_ErrorCallback>
7010155c:	0172      	lsls	r2, r6, #5
7010155e:	d513      	bpl.n	70101588 <HAL_DCMIPP_CSI_IRQHandler+0x42c>
70101560:	016b      	lsls	r3, r5, #5
70101562:	d511      	bpl.n	70101588 <HAL_DCMIPP_CSI_IRQHandler+0x42c>
70101564:	4b78      	ldr	r3, [pc, #480]	@ (70101748 <HAL_DCMIPP_CSI_IRQHandler+0x5ec>)
70101566:	4620      	mov	r0, r4
70101568:	f8d3 2080 	ldr.w	r2, [r3, #128]	@ 0x80
7010156c:	f022 6280 	bic.w	r2, r2, #67108864	@ 0x4000000
70101570:	f8c3 2080 	str.w	r2, [r3, #128]	@ 0x80
70101574:	f04f 6280 	mov.w	r2, #67108864	@ 0x4000000
70101578:	f8c3 2100 	str.w	r2, [r3, #256]	@ 0x100
7010157c:	68a3      	ldr	r3, [r4, #8]
7010157e:	f443 5380 	orr.w	r3, r3, #4096	@ 0x1000
70101582:	60a3      	str	r3, [r4, #8]
70101584:	f7ff fcb3 	bl	70100eee <HAL_DCMIPP_ErrorCallback>
70101588:	01b0      	lsls	r0, r6, #6
7010158a:	d513      	bpl.n	701015b4 <HAL_DCMIPP_CSI_IRQHandler+0x458>
7010158c:	01a9      	lsls	r1, r5, #6
7010158e:	d511      	bpl.n	701015b4 <HAL_DCMIPP_CSI_IRQHandler+0x458>
70101590:	4b6d      	ldr	r3, [pc, #436]	@ (70101748 <HAL_DCMIPP_CSI_IRQHandler+0x5ec>)
70101592:	4620      	mov	r0, r4
70101594:	f8d3 2080 	ldr.w	r2, [r3, #128]	@ 0x80
70101598:	f022 7200 	bic.w	r2, r2, #33554432	@ 0x2000000
7010159c:	f8c3 2080 	str.w	r2, [r3, #128]	@ 0x80
701015a0:	f04f 7200 	mov.w	r2, #33554432	@ 0x2000000
701015a4:	f8c3 2100 	str.w	r2, [r3, #256]	@ 0x100
701015a8:	68a3      	ldr	r3, [r4, #8]
701015aa:	f443 5300 	orr.w	r3, r3, #8192	@ 0x2000
701015ae:	60a3      	str	r3, [r4, #8]
701015b0:	f7ff fc9d 	bl	70100eee <HAL_DCMIPP_ErrorCallback>
701015b4:	01f2      	lsls	r2, r6, #7
701015b6:	d513      	bpl.n	701015e0 <HAL_DCMIPP_CSI_IRQHandler+0x484>
701015b8:	01eb      	lsls	r3, r5, #7
701015ba:	d511      	bpl.n	701015e0 <HAL_DCMIPP_CSI_IRQHandler+0x484>
701015bc:	4b62      	ldr	r3, [pc, #392]	@ (70101748 <HAL_DCMIPP_CSI_IRQHandler+0x5ec>)
701015be:	4620      	mov	r0, r4
701015c0:	f8d3 2080 	ldr.w	r2, [r3, #128]	@ 0x80
701015c4:	f022 7280 	bic.w	r2, r2, #16777216	@ 0x1000000
701015c8:	f8c3 2080 	str.w	r2, [r3, #128]	@ 0x80
701015cc:	f04f 7280 	mov.w	r2, #16777216	@ 0x1000000
701015d0:	f8c3 2100 	str.w	r2, [r3, #256]	@ 0x100
701015d4:	68a3      	ldr	r3, [r4, #8]
701015d6:	f443 4380 	orr.w	r3, r3, #16384	@ 0x4000
701015da:	60a3      	str	r3, [r4, #8]
701015dc:	f7ff fc87 	bl	70100eee <HAL_DCMIPP_ErrorCallback>
701015e0:	f018 0f01 	tst.w	r8, #1
701015e4:	d014      	beq.n	70101610 <HAL_DCMIPP_CSI_IRQHandler+0x4b4>
701015e6:	07f8      	lsls	r0, r7, #31
701015e8:	d512      	bpl.n	70101610 <HAL_DCMIPP_CSI_IRQHandler+0x4b4>
701015ea:	2101      	movs	r1, #1
701015ec:	4b56      	ldr	r3, [pc, #344]	@ (70101748 <HAL_DCMIPP_CSI_IRQHandler+0x5ec>)
701015ee:	4620      	mov	r0, r4
701015f0:	f8d3 2080 	ldr.w	r2, [r3, #128]	@ 0x80
701015f4:	f022 0201 	bic.w	r2, r2, #1
701015f8:	f8c3 2080 	str.w	r2, [r3, #128]	@ 0x80
701015fc:	f8c3 1104 	str.w	r1, [r3, #260]	@ 0x104
70101600:	68a3      	ldr	r3, [r4, #8]
70101602:	f443 2300 	orr.w	r3, r3, #524288	@ 0x80000
70101606:	60a3      	str	r3, [r4, #8]
70101608:	2304      	movs	r3, #4
7010160a:	7123      	strb	r3, [r4, #4]
7010160c:	f7ff fd9f 	bl	7010114e <HAL_DCMIPP_CSI_LineErrorCallback>
70101610:	f018 0f02 	tst.w	r8, #2
70101614:	d015      	beq.n	70101642 <HAL_DCMIPP_CSI_IRQHandler+0x4e6>
70101616:	07b9      	lsls	r1, r7, #30
70101618:	d513      	bpl.n	70101642 <HAL_DCMIPP_CSI_IRQHandler+0x4e6>
7010161a:	4b4b      	ldr	r3, [pc, #300]	@ (70101748 <HAL_DCMIPP_CSI_IRQHandler+0x5ec>)
7010161c:	2101      	movs	r1, #1
7010161e:	f8d3 2080 	ldr.w	r2, [r3, #128]	@ 0x80
70101622:	4620      	mov	r0, r4
70101624:	f022 0202 	bic.w	r2, r2, #2
70101628:	f8c3 2080 	str.w	r2, [r3, #128]	@ 0x80
7010162c:	2202      	movs	r2, #2
7010162e:	f8c3 2104 	str.w	r2, [r3, #260]	@ 0x104
70101632:	68a3      	ldr	r3, [r4, #8]
70101634:	f443 2380 	orr.w	r3, r3, #262144	@ 0x40000
70101638:	60a3      	str	r3, [r4, #8]
7010163a:	2304      	movs	r3, #4
7010163c:	7123      	strb	r3, [r4, #4]
7010163e:	f7ff fd86 	bl	7010114e <HAL_DCMIPP_CSI_LineErrorCallback>
70101642:	f018 0f04 	tst.w	r8, #4
70101646:	d013      	beq.n	70101670 <HAL_DCMIPP_CSI_IRQHandler+0x514>
70101648:	077a      	lsls	r2, r7, #29
7010164a:	d511      	bpl.n	70101670 <HAL_DCMIPP_CSI_IRQHandler+0x514>
7010164c:	4b3e      	ldr	r3, [pc, #248]	@ (70101748 <HAL_DCMIPP_CSI_IRQHandler+0x5ec>)
7010164e:	2101      	movs	r1, #1
70101650:	f8d3 2080 	ldr.w	r2, [r3, #128]	@ 0x80
70101654:	4620      	mov	r0, r4
70101656:	f022 0204 	bic.w	r2, r2, #4
7010165a:	f8c3 2080 	str.w	r2, [r3, #128]	@ 0x80
7010165e:	2204      	movs	r2, #4
70101660:	f8c3 2104 	str.w	r2, [r3, #260]	@ 0x104
70101664:	68a3      	ldr	r3, [r4, #8]
70101666:	f443 3300 	orr.w	r3, r3, #131072	@ 0x20000
7010166a:	60a3      	str	r3, [r4, #8]
7010166c:	f7ff fd6f 	bl	7010114e <HAL_DCMIPP_CSI_LineErrorCallback>
70101670:	f018 0f08 	tst.w	r8, #8
70101674:	d013      	beq.n	7010169e <HAL_DCMIPP_CSI_IRQHandler+0x542>
70101676:	073b      	lsls	r3, r7, #28
70101678:	d511      	bpl.n	7010169e <HAL_DCMIPP_CSI_IRQHandler+0x542>
7010167a:	4b33      	ldr	r3, [pc, #204]	@ (70101748 <HAL_DCMIPP_CSI_IRQHandler+0x5ec>)
7010167c:	2101      	movs	r1, #1
7010167e:	f8d3 2080 	ldr.w	r2, [r3, #128]	@ 0x80
70101682:	4620      	mov	r0, r4
70101684:	f022 0208 	bic.w	r2, r2, #8
70101688:	f8c3 2080 	str.w	r2, [r3, #128]	@ 0x80
7010168c:	2208      	movs	r2, #8
7010168e:	f8c3 2104 	str.w	r2, [r3, #260]	@ 0x104
70101692:	68a3      	ldr	r3, [r4, #8]
70101694:	f443 3380 	orr.w	r3, r3, #65536	@ 0x10000
70101698:	60a3      	str	r3, [r4, #8]
7010169a:	f7ff fd58 	bl	7010114e <HAL_DCMIPP_CSI_LineErrorCallback>
7010169e:	f018 0f10 	tst.w	r8, #16
701016a2:	d013      	beq.n	701016cc <HAL_DCMIPP_CSI_IRQHandler+0x570>
701016a4:	06f8      	lsls	r0, r7, #27
701016a6:	d511      	bpl.n	701016cc <HAL_DCMIPP_CSI_IRQHandler+0x570>
701016a8:	4b27      	ldr	r3, [pc, #156]	@ (70101748 <HAL_DCMIPP_CSI_IRQHandler+0x5ec>)
701016aa:	2101      	movs	r1, #1
701016ac:	f8d3 2080 	ldr.w	r2, [r3, #128]	@ 0x80
701016b0:	4620      	mov	r0, r4
701016b2:	f022 0210 	bic.w	r2, r2, #16
701016b6:	f8c3 2080 	str.w	r2, [r3, #128]	@ 0x80
701016ba:	2210      	movs	r2, #16
701016bc:	f8c3 2104 	str.w	r2, [r3, #260]	@ 0x104
701016c0:	68a3      	ldr	r3, [r4, #8]
701016c2:	f443 4300 	orr.w	r3, r3, #32768	@ 0x8000
701016c6:	60a3      	str	r3, [r4, #8]
701016c8:	f7ff fd41 	bl	7010114e <HAL_DCMIPP_CSI_LineErrorCallback>
701016cc:	f418 7f80 	tst.w	r8, #256	@ 0x100
701016d0:	d016      	beq.n	70101700 <HAL_DCMIPP_CSI_IRQHandler+0x5a4>
701016d2:	05f9      	lsls	r1, r7, #23
701016d4:	d514      	bpl.n	70101700 <HAL_DCMIPP_CSI_IRQHandler+0x5a4>
701016d6:	4b1c      	ldr	r3, [pc, #112]	@ (70101748 <HAL_DCMIPP_CSI_IRQHandler+0x5ec>)
701016d8:	2102      	movs	r1, #2
701016da:	f8d3 2080 	ldr.w	r2, [r3, #128]	@ 0x80
701016de:	4620      	mov	r0, r4
701016e0:	f422 7280 	bic.w	r2, r2, #256	@ 0x100
701016e4:	f8c3 2080 	str.w	r2, [r3, #128]	@ 0x80
701016e8:	f44f 7280 	mov.w	r2, #256	@ 0x100
701016ec:	f8c3 2104 	str.w	r2, [r3, #260]	@ 0x104
701016f0:	68a3      	ldr	r3, [r4, #8]
701016f2:	f443 2300 	orr.w	r3, r3, #524288	@ 0x80000
701016f6:	60a3      	str	r3, [r4, #8]
701016f8:	2304      	movs	r3, #4
701016fa:	7123      	strb	r3, [r4, #4]
701016fc:	f7ff fd27 	bl	7010114e <HAL_DCMIPP_CSI_LineErrorCallback>
70101700:	f418 7f00 	tst.w	r8, #512	@ 0x200
70101704:	d016      	beq.n	70101734 <HAL_DCMIPP_CSI_IRQHandler+0x5d8>
70101706:	05ba      	lsls	r2, r7, #22
70101708:	d514      	bpl.n	70101734 <HAL_DCMIPP_CSI_IRQHandler+0x5d8>
7010170a:	4b0f      	ldr	r3, [pc, #60]	@ (70101748 <HAL_DCMIPP_CSI_IRQHandler+0x5ec>)
7010170c:	2102      	movs	r1, #2
7010170e:	f8d3 2080 	ldr.w	r2, [r3, #128]	@ 0x80
70101712:	4620      	mov	r0, r4
70101714:	f422 7200 	bic.w	r2, r2, #512	@ 0x200
70101718:	f8c3 2080 	str.w	r2, [r3, #128]	@ 0x80
7010171c:	f44f 7200 	mov.w	r2, #512	@ 0x200
70101720:	f8c3 2104 	str.w	r2, [r3, #260]	@ 0x104
70101724:	68a3      	ldr	r3, [r4, #8]
70101726:	f443 2380 	orr.w	r3, r3, #262144	@ 0x40000
7010172a:	60a3      	str	r3, [r4, #8]
7010172c:	2304      	movs	r3, #4
7010172e:	7123      	strb	r3, [r4, #4]
70101730:	f7ff fd0d 	bl	7010114e <HAL_DCMIPP_CSI_LineErrorCallback>
70101734:	f418 6f80 	tst.w	r8, #1024	@ 0x400
70101738:	d017      	beq.n	7010176a <HAL_DCMIPP_CSI_IRQHandler+0x60e>
7010173a:	057b      	lsls	r3, r7, #21
7010173c:	d515      	bpl.n	7010176a <HAL_DCMIPP_CSI_IRQHandler+0x60e>
7010173e:	4b02      	ldr	r3, [pc, #8]	@ (70101748 <HAL_DCMIPP_CSI_IRQHandler+0x5ec>)
70101740:	2102      	movs	r1, #2
70101742:	f8d3 2080 	ldr.w	r2, [r3, #128]	@ 0x80
70101746:	e001      	b.n	7010174c <HAL_DCMIPP_CSI_IRQHandler+0x5f0>
70101748:	58006000 	.word	0x58006000
7010174c:	4620      	mov	r0, r4
7010174e:	f422 6280 	bic.w	r2, r2, #1024	@ 0x400
70101752:	f8c3 2080 	str.w	r2, [r3, #128]	@ 0x80
70101756:	f44f 6280 	mov.w	r2, #1024	@ 0x400
7010175a:	f8c3 2104 	str.w	r2, [r3, #260]	@ 0x104
7010175e:	68a3      	ldr	r3, [r4, #8]
70101760:	f443 3300 	orr.w	r3, r3, #131072	@ 0x20000
70101764:	60a3      	str	r3, [r4, #8]
70101766:	f7ff fcf2 	bl	7010114e <HAL_DCMIPP_CSI_LineErrorCallback>
7010176a:	f418 6f00 	tst.w	r8, #2048	@ 0x800
7010176e:	d014      	beq.n	7010179a <HAL_DCMIPP_CSI_IRQHandler+0x63e>
70101770:	0538      	lsls	r0, r7, #20
70101772:	d512      	bpl.n	7010179a <HAL_DCMIPP_CSI_IRQHandler+0x63e>
70101774:	4b1f      	ldr	r3, [pc, #124]	@ (701017f4 <HAL_DCMIPP_CSI_IRQHandler+0x698>)
70101776:	2102      	movs	r1, #2
70101778:	f8d3 2080 	ldr.w	r2, [r3, #128]	@ 0x80
7010177c:	4620      	mov	r0, r4
7010177e:	f422 6200 	bic.w	r2, r2, #2048	@ 0x800
70101782:	f8c3 2080 	str.w	r2, [r3, #128]	@ 0x80
70101786:	f44f 6200 	mov.w	r2, #2048	@ 0x800
7010178a:	f8c3 2104 	str.w	r2, [r3, #260]	@ 0x104
7010178e:	68a3      	ldr	r3, [r4, #8]
70101790:	f443 3380 	orr.w	r3, r3, #65536	@ 0x10000
70101794:	60a3      	str	r3, [r4, #8]
70101796:	f7ff fcda 	bl	7010114e <HAL_DCMIPP_CSI_LineErrorCallback>
7010179a:	f418 5f80 	tst.w	r8, #4096	@ 0x1000
7010179e:	d014      	beq.n	701017ca <HAL_DCMIPP_CSI_IRQHandler+0x66e>
701017a0:	04f9      	lsls	r1, r7, #19
701017a2:	d512      	bpl.n	701017ca <HAL_DCMIPP_CSI_IRQHandler+0x66e>
701017a4:	4b13      	ldr	r3, [pc, #76]	@ (701017f4 <HAL_DCMIPP_CSI_IRQHandler+0x698>)
701017a6:	2102      	movs	r1, #2
701017a8:	f8d3 2080 	ldr.w	r2, [r3, #128]	@ 0x80
701017ac:	4620      	mov	r0, r4
701017ae:	f422 5280 	bic.w	r2, r2, #4096	@ 0x1000
701017b2:	f8c3 2080 	str.w	r2, [r3, #128]	@ 0x80
701017b6:	f44f 5280 	mov.w	r2, #4096	@ 0x1000
701017ba:	f8c3 2104 	str.w	r2, [r3, #260]	@ 0x104
701017be:	68a3      	ldr	r3, [r4, #8]
701017c0:	f443 4300 	orr.w	r3, r3, #32768	@ 0x8000
701017c4:	60a3      	str	r3, [r4, #8]
701017c6:	f7ff fcc2 	bl	7010114e <HAL_DCMIPP_CSI_LineErrorCallback>
701017ca:	03f2      	lsls	r2, r6, #15
701017cc:	d50f      	bpl.n	701017ee <HAL_DCMIPP_CSI_IRQHandler+0x692>
701017ce:	03eb      	lsls	r3, r5, #15
701017d0:	d50d      	bpl.n	701017ee <HAL_DCMIPP_CSI_IRQHandler+0x692>
701017d2:	4b08      	ldr	r3, [pc, #32]	@ (701017f4 <HAL_DCMIPP_CSI_IRQHandler+0x698>)
701017d4:	4620      	mov	r0, r4
701017d6:	f8d3 2080 	ldr.w	r2, [r3, #128]	@ 0x80
701017da:	f422 3280 	bic.w	r2, r2, #65536	@ 0x10000
701017de:	f8c3 2080 	str.w	r2, [r3, #128]	@ 0x80
701017e2:	f44f 3280 	mov.w	r2, #65536	@ 0x10000
701017e6:	f8c3 2100 	str.w	r2, [r3, #256]	@ 0x100
701017ea:	f7ff fcb2 	bl	70101152 <HAL_DCMIPP_CSI_ShortPacketDetectionEventCallback>
701017ee:	e8bd 81f0 	ldmia.w	sp!, {r4, r5, r6, r7, r8, pc}
701017f2:	bf00      	nop
701017f4:	58006000 	.word	0x58006000

701017f8 <HAL_DMA_Abort>:
701017f8:	b538      	push	{r3, r4, r5, lr}
701017fa:	4604      	mov	r4, r0
701017fc:	f7ff fb04 	bl	70100e08 <HAL_GetTick>
70101800:	4605      	mov	r5, r0
70101802:	b144      	cbz	r4, 70101816 <HAL_DMA_Abort+0x1e>
70101804:	f894 3054 	ldrb.w	r3, [r4, #84]	@ 0x54
70101808:	2b02      	cmp	r3, #2
7010180a:	d006      	beq.n	7010181a <HAL_DMA_Abort+0x22>
7010180c:	2320      	movs	r3, #32
7010180e:	65a3      	str	r3, [r4, #88]	@ 0x58
70101810:	2300      	movs	r3, #0
70101812:	f884 304c 	strb.w	r3, [r4, #76]	@ 0x4c
70101816:	2001      	movs	r0, #1
70101818:	bd38      	pop	{r3, r4, r5, pc}
7010181a:	6822      	ldr	r2, [r4, #0]
7010181c:	6953      	ldr	r3, [r2, #20]
7010181e:	f043 0304 	orr.w	r3, r3, #4
70101822:	6153      	str	r3, [r2, #20]
70101824:	2305      	movs	r3, #5
70101826:	f884 3054 	strb.w	r3, [r4, #84]	@ 0x54
7010182a:	6823      	ldr	r3, [r4, #0]
7010182c:	691a      	ldr	r2, [r3, #16]
7010182e:	0490      	lsls	r0, r2, #18
70101830:	d519      	bpl.n	70101866 <HAL_DMA_Abort+0x6e>
70101832:	695a      	ldr	r2, [r3, #20]
70101834:	6d21      	ldr	r1, [r4, #80]	@ 0x50
70101836:	f042 0202 	orr.w	r2, r2, #2
7010183a:	615a      	str	r2, [r3, #20]
7010183c:	2204      	movs	r2, #4
7010183e:	f884 2054 	strb.w	r2, [r4, #84]	@ 0x54
70101842:	f44f 42fe 	mov.w	r2, #32512	@ 0x7f00
70101846:	60da      	str	r2, [r3, #12]
70101848:	2201      	movs	r2, #1
7010184a:	0609      	lsls	r1, r1, #24
7010184c:	bf48      	it	mi
7010184e:	6f61      	ldrmi	r1, [r4, #116]	@ 0x74
70101850:	f884 2054 	strb.w	r2, [r4, #84]	@ 0x54
70101854:	f04f 0000 	mov.w	r0, #0
70101858:	bf42      	ittt	mi
7010185a:	730a      	strbmi	r2, [r1, #12]
7010185c:	2200      	movmi	r2, #0
7010185e:	649a      	strmi	r2, [r3, #72]	@ 0x48
70101860:	f884 004c 	strb.w	r0, [r4, #76]	@ 0x4c
70101864:	e7d8      	b.n	70101818 <HAL_DMA_Abort+0x20>
70101866:	f7ff facf 	bl	70100e08 <HAL_GetTick>
7010186a:	1b40      	subs	r0, r0, r5
7010186c:	2805      	cmp	r0, #5
7010186e:	d9dc      	bls.n	7010182a <HAL_DMA_Abort+0x32>
70101870:	6da3      	ldr	r3, [r4, #88]	@ 0x58
70101872:	f043 0310 	orr.w	r3, r3, #16
70101876:	65a3      	str	r3, [r4, #88]	@ 0x58
70101878:	2303      	movs	r3, #3
7010187a:	f884 3054 	strb.w	r3, [r4, #84]	@ 0x54
7010187e:	6d23      	ldr	r3, [r4, #80]	@ 0x50
70101880:	061d      	lsls	r5, r3, #24
70101882:	d5c5      	bpl.n	70101810 <HAL_DMA_Abort+0x18>
70101884:	2201      	movs	r2, #1
70101886:	6f63      	ldr	r3, [r4, #116]	@ 0x74
70101888:	731a      	strb	r2, [r3, #12]
7010188a:	e7c1      	b.n	70101810 <HAL_DMA_Abort+0x18>

7010188c <HAL_DMA_Abort_IT>:
7010188c:	b128      	cbz	r0, 7010189a <HAL_DMA_Abort_IT+0xe>
7010188e:	f890 3054 	ldrb.w	r3, [r0, #84]	@ 0x54
70101892:	2b02      	cmp	r3, #2
70101894:	d003      	beq.n	7010189e <HAL_DMA_Abort_IT+0x12>
70101896:	2320      	movs	r3, #32
70101898:	6583      	str	r3, [r0, #88]	@ 0x58
7010189a:	2001      	movs	r0, #1
7010189c:	4770      	bx	lr
7010189e:	2304      	movs	r3, #4
701018a0:	6802      	ldr	r2, [r0, #0]
701018a2:	f880 3054 	strb.w	r3, [r0, #84]	@ 0x54
701018a6:	6953      	ldr	r3, [r2, #20]
701018a8:	2000      	movs	r0, #0
701018aa:	f443 5300 	orr.w	r3, r3, #8192	@ 0x2000
701018ae:	f043 0304 	orr.w	r3, r3, #4
701018b2:	6153      	str	r3, [r2, #20]
701018b4:	4770      	bx	lr
	...

701018b8 <HAL_GPIO_Init>:
701018b8:	e92d 4ff0 	stmdb	sp!, {r4, r5, r6, r7, r8, r9, sl, fp, lr}
701018bc:	2300      	movs	r3, #0
701018be:	f04f 0a0f 	mov.w	sl, #15
701018c2:	4c6d      	ldr	r4, [pc, #436]	@ (70101a78 <HAL_GPIO_Init+0x1c0>)
701018c4:	680a      	ldr	r2, [r1, #0]
701018c6:	fa32 f503 	lsrs.w	r5, r2, r3
701018ca:	d101      	bne.n	701018d0 <HAL_GPIO_Init+0x18>
701018cc:	e8bd 8ff0 	ldmia.w	sp!, {r4, r5, r6, r7, r8, r9, sl, fp, pc}
701018d0:	2501      	movs	r5, #1
701018d2:	fa05 f903 	lsl.w	r9, r5, r3
701018d6:	ea19 0202 	ands.w	r2, r9, r2
701018da:	f000 80b5 	beq.w	70101a48 <HAL_GPIO_Init+0x190>
701018de:	2703      	movs	r7, #3
701018e0:	684e      	ldr	r6, [r1, #4]
701018e2:	ea4f 0843 	mov.w	r8, r3, lsl #1
701018e6:	f006 0503 	and.w	r5, r6, #3
701018ea:	fa07 fe08 	lsl.w	lr, r7, r8
701018ee:	1e6f      	subs	r7, r5, #1
701018f0:	2f01      	cmp	r7, #1
701018f2:	ea6f 0e0e 	mvn.w	lr, lr
701018f6:	f8d1 c008 	ldr.w	ip, [r1, #8]
701018fa:	d831      	bhi.n	70101960 <HAL_GPIO_Init+0xa8>
701018fc:	6887      	ldr	r7, [r0, #8]
701018fe:	ea07 0b0e 	and.w	fp, r7, lr
70101902:	68cf      	ldr	r7, [r1, #12]
70101904:	fa07 f708 	lsl.w	r7, r7, r8
70101908:	ea47 070b 	orr.w	r7, r7, fp
7010190c:	6087      	str	r7, [r0, #8]
7010190e:	6847      	ldr	r7, [r0, #4]
70101910:	ea27 0909 	bic.w	r9, r7, r9
70101914:	f3c6 1700 	ubfx	r7, r6, #4, #1
70101918:	409f      	lsls	r7, r3
7010191a:	ea47 0709 	orr.w	r7, r7, r9
7010191e:	6047      	str	r7, [r0, #4]
70101920:	68c7      	ldr	r7, [r0, #12]
70101922:	fa0c fc08 	lsl.w	ip, ip, r8
70101926:	ea07 070e 	and.w	r7, r7, lr
7010192a:	ea4c 0707 	orr.w	r7, ip, r7
7010192e:	2d02      	cmp	r5, #2
70101930:	60c7      	str	r7, [r0, #12]
70101932:	d11a      	bne.n	7010196a <HAL_GPIO_Init+0xb2>
70101934:	ea4f 0cd3 	mov.w	ip, r3, lsr #3
70101938:	eb00 0c8c 	add.w	ip, r0, ip, lsl #2
7010193c:	f003 0907 	and.w	r9, r3, #7
70101940:	f8dc 7020 	ldr.w	r7, [ip, #32]
70101944:	ea4f 0989 	mov.w	r9, r9, lsl #2
70101948:	fa0a fb09 	lsl.w	fp, sl, r9
7010194c:	ea27 0b0b 	bic.w	fp, r7, fp
70101950:	690f      	ldr	r7, [r1, #16]
70101952:	fa07 f709 	lsl.w	r7, r7, r9
70101956:	ea47 070b 	orr.w	r7, r7, fp
7010195a:	f8cc 7020 	str.w	r7, [ip, #32]
7010195e:	e004      	b.n	7010196a <HAL_GPIO_Init+0xb2>
70101960:	2d03      	cmp	r5, #3
70101962:	d1dd      	bne.n	70101920 <HAL_GPIO_Init+0x68>
70101964:	f1bc 0f01 	cmp.w	ip, #1
70101968:	d1da      	bne.n	70101920 <HAL_GPIO_Init+0x68>
7010196a:	6807      	ldr	r7, [r0, #0]
7010196c:	fa05 f508 	lsl.w	r5, r5, r8
70101970:	ea07 070e 	and.w	r7, r7, lr
70101974:	433d      	orrs	r5, r7
70101976:	f416 3f40 	tst.w	r6, #196608	@ 0x30000
7010197a:	6005      	str	r5, [r0, #0]
7010197c:	d064      	beq.n	70101a48 <HAL_GPIO_Init+0x190>
7010197e:	f023 0703 	bic.w	r7, r3, #3
70101982:	f107 47ac 	add.w	r7, r7, #1442840576	@ 0x56000000
70101986:	f507 3714 	add.w	r7, r7, #151552	@ 0x25000
7010198a:	f003 0c03 	and.w	ip, r3, #3
7010198e:	6e3d      	ldr	r5, [r7, #96]	@ 0x60
70101990:	ea4f 0ccc 	mov.w	ip, ip, lsl #3
70101994:	fa0a fe0c 	lsl.w	lr, sl, ip
70101998:	ea25 0e0e 	bic.w	lr, r5, lr
7010199c:	4d37      	ldr	r5, [pc, #220]	@ (70101a7c <HAL_GPIO_Init+0x1c4>)
7010199e:	42a8      	cmp	r0, r5
701019a0:	d054      	beq.n	70101a4c <HAL_GPIO_Init+0x194>
701019a2:	f505 6580 	add.w	r5, r5, #1024	@ 0x400
701019a6:	42a8      	cmp	r0, r5
701019a8:	d052      	beq.n	70101a50 <HAL_GPIO_Init+0x198>
701019aa:	f505 6580 	add.w	r5, r5, #1024	@ 0x400
701019ae:	42a8      	cmp	r0, r5
701019b0:	d050      	beq.n	70101a54 <HAL_GPIO_Init+0x19c>
701019b2:	f505 6580 	add.w	r5, r5, #1024	@ 0x400
701019b6:	42a8      	cmp	r0, r5
701019b8:	d04e      	beq.n	70101a58 <HAL_GPIO_Init+0x1a0>
701019ba:	f505 6580 	add.w	r5, r5, #1024	@ 0x400
701019be:	42a8      	cmp	r0, r5
701019c0:	d04c      	beq.n	70101a5c <HAL_GPIO_Init+0x1a4>
701019c2:	f505 6580 	add.w	r5, r5, #1024	@ 0x400
701019c6:	42a8      	cmp	r0, r5
701019c8:	d04a      	beq.n	70101a60 <HAL_GPIO_Init+0x1a8>
701019ca:	f505 6580 	add.w	r5, r5, #1024	@ 0x400
701019ce:	42a8      	cmp	r0, r5
701019d0:	d048      	beq.n	70101a64 <HAL_GPIO_Init+0x1ac>
701019d2:	f505 6580 	add.w	r5, r5, #1024	@ 0x400
701019d6:	42a8      	cmp	r0, r5
701019d8:	d046      	beq.n	70101a68 <HAL_GPIO_Init+0x1b0>
701019da:	f505 55c0 	add.w	r5, r5, #6144	@ 0x1800
701019de:	42a8      	cmp	r0, r5
701019e0:	d044      	beq.n	70101a6c <HAL_GPIO_Init+0x1b4>
701019e2:	f505 6580 	add.w	r5, r5, #1024	@ 0x400
701019e6:	42a8      	cmp	r0, r5
701019e8:	d042      	beq.n	70101a70 <HAL_GPIO_Init+0x1b8>
701019ea:	f505 6580 	add.w	r5, r5, #1024	@ 0x400
701019ee:	42a8      	cmp	r0, r5
701019f0:	d040      	beq.n	70101a74 <HAL_GPIO_Init+0x1bc>
701019f2:	f505 6580 	add.w	r5, r5, #1024	@ 0x400
701019f6:	42a8      	cmp	r0, r5
701019f8:	bf14      	ite	ne
701019fa:	2510      	movne	r5, #16
701019fc:	250b      	moveq	r5, #11
701019fe:	fa05 f50c 	lsl.w	r5, r5, ip
70101a02:	ea45 050e 	orr.w	r5, r5, lr
70101a06:	663d      	str	r5, [r7, #96]	@ 0x60
70101a08:	43d7      	mvns	r7, r2
70101a0a:	f8d4 5080 	ldr.w	r5, [r4, #128]	@ 0x80
70101a0e:	f416 3f80 	tst.w	r6, #65536	@ 0x10000
70101a12:	bf0c      	ite	eq
70101a14:	403d      	andeq	r5, r7
70101a16:	4315      	orrne	r5, r2
70101a18:	f8c4 5080 	str.w	r5, [r4, #128]	@ 0x80
70101a1c:	f8d4 5084 	ldr.w	r5, [r4, #132]	@ 0x84
70101a20:	f416 3f00 	tst.w	r6, #131072	@ 0x20000
70101a24:	bf0c      	ite	eq
70101a26:	403d      	andeq	r5, r7
70101a28:	4315      	orrne	r5, r2
70101a2a:	f8c4 5084 	str.w	r5, [r4, #132]	@ 0x84
70101a2e:	6825      	ldr	r5, [r4, #0]
70101a30:	f416 1f80 	tst.w	r6, #1048576	@ 0x100000
70101a34:	bf0c      	ite	eq
70101a36:	403d      	andeq	r5, r7
70101a38:	4315      	orrne	r5, r2
70101a3a:	6025      	str	r5, [r4, #0]
70101a3c:	6865      	ldr	r5, [r4, #4]
70101a3e:	02b6      	lsls	r6, r6, #10
70101a40:	bf54      	ite	pl
70101a42:	403d      	andpl	r5, r7
70101a44:	4315      	orrmi	r5, r2
70101a46:	6065      	str	r5, [r4, #4]
70101a48:	3301      	adds	r3, #1
70101a4a:	e73b      	b.n	701018c4 <HAL_GPIO_Init+0xc>
70101a4c:	2500      	movs	r5, #0
70101a4e:	e7d6      	b.n	701019fe <HAL_GPIO_Init+0x146>
70101a50:	2501      	movs	r5, #1
70101a52:	e7d4      	b.n	701019fe <HAL_GPIO_Init+0x146>
70101a54:	2502      	movs	r5, #2
70101a56:	e7d2      	b.n	701019fe <HAL_GPIO_Init+0x146>
70101a58:	2503      	movs	r5, #3
70101a5a:	e7d0      	b.n	701019fe <HAL_GPIO_Init+0x146>
70101a5c:	2504      	movs	r5, #4
70101a5e:	e7ce      	b.n	701019fe <HAL_GPIO_Init+0x146>
70101a60:	2505      	movs	r5, #5
70101a62:	e7cc      	b.n	701019fe <HAL_GPIO_Init+0x146>
70101a64:	2506      	movs	r5, #6
70101a66:	e7ca      	b.n	701019fe <HAL_GPIO_Init+0x146>
70101a68:	2507      	movs	r5, #7
70101a6a:	e7c8      	b.n	701019fe <HAL_GPIO_Init+0x146>
70101a6c:	2508      	movs	r5, #8
70101a6e:	e7c6      	b.n	701019fe <HAL_GPIO_Init+0x146>
70101a70:	2509      	movs	r5, #9
70101a72:	e7c4      	b.n	701019fe <HAL_GPIO_Init+0x146>
70101a74:	250a      	movs	r5, #10
70101a76:	e7c2      	b.n	701019fe <HAL_GPIO_Init+0x146>
70101a78:	56025000 	.word	0x56025000
70101a7c:	56020000 	.word	0x56020000

70101a80 <HAL_GPIO_ConfigPinAttributes>:
70101a80:	b510      	push	{r4, lr}
70101a82:	f240 1401 	movw	r4, #257	@ 0x101
70101a86:	4394      	bics	r4, r2
70101a88:	6b03      	ldr	r3, [r0, #48]	@ 0x30
70101a8a:	d109      	bne.n	70101aa0 <HAL_GPIO_ConfigPinAttributes+0x20>
70101a8c:	430b      	orrs	r3, r1
70101a8e:	f240 2402 	movw	r4, #514	@ 0x202
70101a92:	6303      	str	r3, [r0, #48]	@ 0x30
70101a94:	4394      	bics	r4, r2
70101a96:	6b43      	ldr	r3, [r0, #52]	@ 0x34
70101a98:	d106      	bne.n	70101aa8 <HAL_GPIO_ConfigPinAttributes+0x28>
70101a9a:	430b      	orrs	r3, r1
70101a9c:	6343      	str	r3, [r0, #52]	@ 0x34
70101a9e:	bd10      	pop	{r4, pc}
70101aa0:	05d4      	lsls	r4, r2, #23
70101aa2:	bf48      	it	mi
70101aa4:	438b      	bicmi	r3, r1
70101aa6:	e7f2      	b.n	70101a8e <HAL_GPIO_ConfigPinAttributes+0xe>
70101aa8:	0592      	lsls	r2, r2, #22
70101aaa:	bf48      	it	mi
70101aac:	438b      	bicmi	r3, r1
70101aae:	e7f5      	b.n	70101a9c <HAL_GPIO_ConfigPinAttributes+0x1c>

70101ab0 <LL_RCC_HSE_SelectHSEAsDiv2Clock>:
70101ab0:	4a02      	ldr	r2, [pc, #8]	@ (70101abc <LL_RCC_HSE_SelectHSEAsDiv2Clock+0xc>)
70101ab2:	6d53      	ldr	r3, [r2, #84]	@ 0x54
70101ab4:	f023 0340 	bic.w	r3, r3, #64	@ 0x40
70101ab8:	6553      	str	r3, [r2, #84]	@ 0x54
70101aba:	4770      	bx	lr
70101abc:	56028000 	.word	0x56028000

70101ac0 <LL_RCC_HSE_SelectHSEDiv2AsDiv2Clock>:
70101ac0:	4a02      	ldr	r2, [pc, #8]	@ (70101acc <LL_RCC_HSE_SelectHSEDiv2AsDiv2Clock+0xc>)
70101ac2:	6d53      	ldr	r3, [r2, #84]	@ 0x54
70101ac4:	f043 0340 	orr.w	r3, r3, #64	@ 0x40
70101ac8:	6553      	str	r3, [r2, #84]	@ 0x54
70101aca:	4770      	bx	lr
70101acc:	56028000 	.word	0x56028000

70101ad0 <LL_RCC_LSE_IsReady>:
70101ad0:	4b02      	ldr	r3, [pc, #8]	@ (70101adc <LL_RCC_LSE_IsReady+0xc>)
70101ad2:	6858      	ldr	r0, [r3, #4]
70101ad4:	f3c0 0040 	ubfx	r0, r0, #1, #1
70101ad8:	4770      	bx	lr
70101ada:	bf00      	nop
70101adc:	56028000 	.word	0x56028000

70101ae0 <LL_RCC_SetClockSource>:
70101ae0:	4907      	ldr	r1, [pc, #28]	@ (70101b00 <LL_RCC_SetClockSource+0x20>)
70101ae2:	b530      	push	{r4, r5, lr}
70101ae4:	b2c4      	uxtb	r4, r0
70101ae6:	f3c0 2504 	ubfx	r5, r0, #8, #5
70101aea:	5863      	ldr	r3, [r4, r1]
70101aec:	0e02      	lsrs	r2, r0, #24
70101aee:	40aa      	lsls	r2, r5
70101af0:	f3c0 4007 	ubfx	r0, r0, #16, #8
70101af4:	ea23 0302 	bic.w	r3, r3, r2
70101af8:	40a8      	lsls	r0, r5
70101afa:	4303      	orrs	r3, r0
70101afc:	5063      	str	r3, [r4, r1]
70101afe:	bd30      	pop	{r4, r5, pc}
70101b00:	56028144 	.word	0x56028144

70101b04 <HAL_RCCEx_PeriphCLKConfig>:
70101b04:	6803      	ldr	r3, [r0, #0]
70101b06:	e92d 41f0 	stmdb	sp!, {r4, r5, r6, r7, r8, lr}
70101b0a:	0119      	lsls	r1, r3, #4
70101b0c:	4604      	mov	r4, r0
70101b0e:	d52b      	bpl.n	70101b68 <HAL_RCCEx_PeriphCLKConfig+0x64>
70101b10:	4b2a      	ldr	r3, [pc, #168]	@ (70101bbc <HAL_RCCEx_PeriphCLKConfig+0xb8>)
70101b12:	f8d0 1188 	ldr.w	r1, [r0, #392]	@ 0x188
70101b16:	f8d3 315c 	ldr.w	r3, [r3, #348]	@ 0x15c
70101b1a:	f413 7340 	ands.w	r3, r3, #768	@ 0x300
70101b1e:	d136      	bne.n	70101b8e <HAL_RCCEx_PeriphCLKConfig+0x8a>
70101b20:	f5b1 7f80 	cmp.w	r1, #256	@ 0x100
70101b24:	d108      	bne.n	70101b38 <HAL_RCCEx_PeriphCLKConfig+0x34>
70101b26:	f7ff f96f 	bl	70100e08 <HAL_GetTick>
70101b2a:	f241 3688 	movw	r6, #5000	@ 0x1388
70101b2e:	4605      	mov	r5, r0
70101b30:	f7ff ffce 	bl	70101ad0 <LL_RCC_LSE_IsReady>
70101b34:	2800      	cmp	r0, #0
70101b36:	d039      	beq.n	70101bac <HAL_RCCEx_PeriphCLKConfig+0xa8>
70101b38:	f8d4 3188 	ldr.w	r3, [r4, #392]	@ 0x188
70101b3c:	4a1f      	ldr	r2, [pc, #124]	@ (70101bbc <HAL_RCCEx_PeriphCLKConfig+0xb8>)
70101b3e:	f403 7040 	and.w	r0, r3, #768	@ 0x300
70101b42:	f5b0 7f40 	cmp.w	r0, #768	@ 0x300
70101b46:	d108      	bne.n	70101b5a <HAL_RCCEx_PeriphCLKConfig+0x56>
70101b48:	f8d2 115c 	ldr.w	r1, [r2, #348]	@ 0x15c
70101b4c:	f423 7340 	bic.w	r3, r3, #768	@ 0x300
70101b50:	f421 317c 	bic.w	r1, r1, #258048	@ 0x3f000
70101b54:	430b      	orrs	r3, r1
70101b56:	f8c2 315c 	str.w	r3, [r2, #348]	@ 0x15c
70101b5a:	f8d2 315c 	ldr.w	r3, [r2, #348]	@ 0x15c
70101b5e:	f423 7340 	bic.w	r3, r3, #768	@ 0x300
70101b62:	4303      	orrs	r3, r0
70101b64:	f8c2 315c 	str.w	r3, [r2, #348]	@ 0x15c
70101b68:	f04f 0800 	mov.w	r8, #0
70101b6c:	e9d4 5600 	ldrd	r5, r6, [r4]
70101b70:	076b      	lsls	r3, r5, #29
70101b72:	d540      	bpl.n	70101bf6 <HAL_RCCEx_PeriphCLKConfig+0xf2>
70101b74:	f8d4 10b8 	ldr.w	r1, [r4, #184]	@ 0xb8
70101b78:	4b10      	ldr	r3, [pc, #64]	@ (70101bbc <HAL_RCCEx_PeriphCLKConfig+0xb8>)
70101b7a:	1eca      	subs	r2, r1, #3
70101b7c:	2a04      	cmp	r2, #4
70101b7e:	d832      	bhi.n	70101be6 <HAL_RCCEx_PeriphCLKConfig+0xe2>
70101b80:	e8df f012 	tbh	[pc, r2, lsl #1]
70101b84:	002006cc 	.word	0x002006cc
70101b88:	06ba06a8 	.word	0x06ba06a8
70101b8c:	06f6      	.short	0x06f6
70101b8e:	f401 7240 	and.w	r2, r1, #768	@ 0x300
70101b92:	429a      	cmp	r2, r3
70101b94:	d0c4      	beq.n	70101b20 <HAL_RCCEx_PeriphCLKConfig+0x1c>
70101b96:	4b0a      	ldr	r3, [pc, #40]	@ (70101bc0 <HAL_RCCEx_PeriphCLKConfig+0xbc>)
70101b98:	6ada      	ldr	r2, [r3, #44]	@ 0x2c
70101b9a:	f042 0201 	orr.w	r2, r2, #1
70101b9e:	62da      	str	r2, [r3, #44]	@ 0x2c
70101ba0:	6adb      	ldr	r3, [r3, #44]	@ 0x2c
70101ba2:	07da      	lsls	r2, r3, #31
70101ba4:	d4bc      	bmi.n	70101b20 <HAL_RCCEx_PeriphCLKConfig+0x1c>
70101ba6:	f04f 0801 	mov.w	r8, #1
70101baa:	e7df      	b.n	70101b6c <HAL_RCCEx_PeriphCLKConfig+0x68>
70101bac:	f7ff f92c 	bl	70100e08 <HAL_GetTick>
70101bb0:	1b40      	subs	r0, r0, r5
70101bb2:	42b0      	cmp	r0, r6
70101bb4:	d9bc      	bls.n	70101b30 <HAL_RCCEx_PeriphCLKConfig+0x2c>
70101bb6:	f04f 0803 	mov.w	r8, #3
70101bba:	e7d7      	b.n	70101b6c <HAL_RCCEx_PeriphCLKConfig+0x68>
70101bbc:	56028000 	.word	0x56028000
70101bc0:	56024800 	.word	0x56024800
70101bc4:	f8d3 20d4 	ldr.w	r2, [r3, #212]	@ 0xd4
70101bc8:	6ae0      	ldr	r0, [r4, #44]	@ 0x2c
70101bca:	6aa7      	ldr	r7, [r4, #40]	@ 0x28
70101bcc:	f022 5243 	bic.w	r2, r2, #817889280	@ 0x30c00000
70101bd0:	f422 127c 	bic.w	r2, r2, #4128768	@ 0x3f0000
70101bd4:	3801      	subs	r0, #1
70101bd6:	433a      	orrs	r2, r7
70101bd8:	ea42 4200 	orr.w	r2, r2, r0, lsl #16
70101bdc:	f8c3 20d4 	str.w	r2, [r3, #212]	@ 0xd4
70101be0:	2210      	movs	r2, #16
70101be2:	f8c3 2a40 	str.w	r2, [r3, #2624]	@ 0xa40
70101be6:	4ac5      	ldr	r2, [pc, #788]	@ (70101efc <HAL_RCCEx_PeriphCLKConfig+0x3f8>)
70101be8:	f8d2 315c 	ldr.w	r3, [r2, #348]	@ 0x15c
70101bec:	f023 0307 	bic.w	r3, r3, #7
70101bf0:	430b      	orrs	r3, r1
70101bf2:	f8c2 315c 	str.w	r3, [r2, #348]	@ 0x15c
70101bf6:	0277      	lsls	r7, r6, #9
70101bf8:	d519      	bpl.n	70101c2e <HAL_RCCEx_PeriphCLKConfig+0x12a>
70101bfa:	f8d4 00ac 	ldr.w	r0, [r4, #172]	@ 0xac
70101bfe:	4bc0      	ldr	r3, [pc, #768]	@ (70101f00 <HAL_RCCEx_PeriphCLKConfig+0x3fc>)
70101c00:	4298      	cmp	r0, r3
70101c02:	f040 86c9 	bne.w	70102998 <HAL_RCCEx_PeriphCLKConfig+0xe94>
70101c06:	4abd      	ldr	r2, [pc, #756]	@ (70101efc <HAL_RCCEx_PeriphCLKConfig+0x3f8>)
70101c08:	69e1      	ldr	r1, [r4, #28]
70101c0a:	f8d2 30cc 	ldr.w	r3, [r2, #204]	@ 0xcc
70101c0e:	69a7      	ldr	r7, [r4, #24]
70101c10:	f023 5343 	bic.w	r3, r3, #817889280	@ 0x30c00000
70101c14:	f423 137c 	bic.w	r3, r3, #4128768	@ 0x3f0000
70101c18:	3901      	subs	r1, #1
70101c1a:	433b      	orrs	r3, r7
70101c1c:	ea43 4301 	orr.w	r3, r3, r1, lsl #16
70101c20:	f8c2 30cc 	str.w	r3, [r2, #204]	@ 0xcc
70101c24:	2304      	movs	r3, #4
70101c26:	f8c2 3a40 	str.w	r3, [r2, #2624]	@ 0xa40
70101c2a:	f7ff ff59 	bl	70101ae0 <LL_RCC_SetClockSource>
70101c2e:	0230      	lsls	r0, r6, #8
70101c30:	d519      	bpl.n	70101c66 <HAL_RCCEx_PeriphCLKConfig+0x162>
70101c32:	f8d4 00b0 	ldr.w	r0, [r4, #176]	@ 0xb0
70101c36:	4bb3      	ldr	r3, [pc, #716]	@ (70101f04 <HAL_RCCEx_PeriphCLKConfig+0x400>)
70101c38:	4298      	cmp	r0, r3
70101c3a:	f040 86cb 	bne.w	701029d4 <HAL_RCCEx_PeriphCLKConfig+0xed0>
70101c3e:	4aaf      	ldr	r2, [pc, #700]	@ (70101efc <HAL_RCCEx_PeriphCLKConfig+0x3f8>)
70101c40:	69e1      	ldr	r1, [r4, #28]
70101c42:	f8d2 30cc 	ldr.w	r3, [r2, #204]	@ 0xcc
70101c46:	69a7      	ldr	r7, [r4, #24]
70101c48:	f023 5343 	bic.w	r3, r3, #817889280	@ 0x30c00000
70101c4c:	f423 137c 	bic.w	r3, r3, #4128768	@ 0x3f0000
70101c50:	3901      	subs	r1, #1
70101c52:	433b      	orrs	r3, r7
70101c54:	ea43 4301 	orr.w	r3, r3, r1, lsl #16
70101c58:	f8c2 30cc 	str.w	r3, [r2, #204]	@ 0xcc
70101c5c:	2304      	movs	r3, #4
70101c5e:	f8c2 3a40 	str.w	r3, [r2, #2624]	@ 0xa40
70101c62:	f7ff ff3d 	bl	70101ae0 <LL_RCC_SetClockSource>
70101c66:	01f1      	lsls	r1, r6, #7
70101c68:	d519      	bpl.n	70101c9e <HAL_RCCEx_PeriphCLKConfig+0x19a>
70101c6a:	f8d4 00b4 	ldr.w	r0, [r4, #180]	@ 0xb4
70101c6e:	4ba6      	ldr	r3, [pc, #664]	@ (70101f08 <HAL_RCCEx_PeriphCLKConfig+0x404>)
70101c70:	4298      	cmp	r0, r3
70101c72:	f040 86cd 	bne.w	70102a10 <HAL_RCCEx_PeriphCLKConfig+0xf0c>
70101c76:	4aa1      	ldr	r2, [pc, #644]	@ (70101efc <HAL_RCCEx_PeriphCLKConfig+0x3f8>)
70101c78:	69e1      	ldr	r1, [r4, #28]
70101c7a:	f8d2 30cc 	ldr.w	r3, [r2, #204]	@ 0xcc
70101c7e:	69a7      	ldr	r7, [r4, #24]
70101c80:	f023 5343 	bic.w	r3, r3, #817889280	@ 0x30c00000
70101c84:	f423 137c 	bic.w	r3, r3, #4128768	@ 0x3f0000
70101c88:	3901      	subs	r1, #1
70101c8a:	433b      	orrs	r3, r7
70101c8c:	ea43 4301 	orr.w	r3, r3, r1, lsl #16
70101c90:	f8c2 30cc 	str.w	r3, [r2, #204]	@ 0xcc
70101c94:	2304      	movs	r3, #4
70101c96:	f8c2 3a40 	str.w	r3, [r2, #2624]	@ 0xa40
70101c9a:	f7ff ff21 	bl	70101ae0 <LL_RCC_SetClockSource>
70101c9e:	052a      	lsls	r2, r5, #20
70101ca0:	d51e      	bpl.n	70101ce0 <HAL_RCCEx_PeriphCLKConfig+0x1dc>
70101ca2:	f8d4 10a8 	ldr.w	r1, [r4, #168]	@ 0xa8
70101ca6:	4a95      	ldr	r2, [pc, #596]	@ (70101efc <HAL_RCCEx_PeriphCLKConfig+0x3f8>)
70101ca8:	2920      	cmp	r1, #32
70101caa:	f040 86cf 	bne.w	70102a4c <HAL_RCCEx_PeriphCLKConfig+0xf48>
70101cae:	f8d2 30cc 	ldr.w	r3, [r2, #204]	@ 0xcc
70101cb2:	69e0      	ldr	r0, [r4, #28]
70101cb4:	69a7      	ldr	r7, [r4, #24]
70101cb6:	f023 5343 	bic.w	r3, r3, #817889280	@ 0x30c00000
70101cba:	f423 137c 	bic.w	r3, r3, #4128768	@ 0x3f0000
70101cbe:	3801      	subs	r0, #1
70101cc0:	433b      	orrs	r3, r7
70101cc2:	ea43 4300 	orr.w	r3, r3, r0, lsl #16
70101cc6:	f8c2 30cc 	str.w	r3, [r2, #204]	@ 0xcc
70101cca:	2304      	movs	r3, #4
70101ccc:	f8c2 3a40 	str.w	r3, [r2, #2624]	@ 0xa40
70101cd0:	4a8a      	ldr	r2, [pc, #552]	@ (70101efc <HAL_RCCEx_PeriphCLKConfig+0x3f8>)
70101cd2:	f8d2 314c 	ldr.w	r3, [r2, #332]	@ 0x14c
70101cd6:	f023 0330 	bic.w	r3, r3, #48	@ 0x30
70101cda:	430b      	orrs	r3, r1
70101cdc:	f8c2 314c 	str.w	r3, [r2, #332]	@ 0x14c
70101ce0:	006b      	lsls	r3, r5, #1
70101ce2:	d519      	bpl.n	70101d18 <HAL_RCCEx_PeriphCLKConfig+0x214>
70101ce4:	f8d4 012c 	ldr.w	r0, [r4, #300]	@ 0x12c
70101ce8:	4b88      	ldr	r3, [pc, #544]	@ (70101f0c <HAL_RCCEx_PeriphCLKConfig+0x408>)
70101cea:	4298      	cmp	r0, r3
70101cec:	f040 86c8 	bne.w	70102a80 <HAL_RCCEx_PeriphCLKConfig+0xf7c>
70101cf0:	4a82      	ldr	r2, [pc, #520]	@ (70101efc <HAL_RCCEx_PeriphCLKConfig+0x3f8>)
70101cf2:	6a61      	ldr	r1, [r4, #36]	@ 0x24
70101cf4:	f8d2 30d0 	ldr.w	r3, [r2, #208]	@ 0xd0
70101cf8:	6a27      	ldr	r7, [r4, #32]
70101cfa:	f023 5343 	bic.w	r3, r3, #817889280	@ 0x30c00000
70101cfe:	f423 137c 	bic.w	r3, r3, #4128768	@ 0x3f0000
70101d02:	3901      	subs	r1, #1
70101d04:	433b      	orrs	r3, r7
70101d06:	ea43 4301 	orr.w	r3, r3, r1, lsl #16
70101d0a:	f8c2 30d0 	str.w	r3, [r2, #208]	@ 0xd0
70101d0e:	2308      	movs	r3, #8
70101d10:	f8c2 3a40 	str.w	r3, [r2, #2624]	@ 0xa40
70101d14:	f7ff fee4 	bl	70101ae0 <LL_RCC_SetClockSource>
70101d18:	2d00      	cmp	r5, #0
70101d1a:	da19      	bge.n	70101d50 <HAL_RCCEx_PeriphCLKConfig+0x24c>
70101d1c:	f8d4 0130 	ldr.w	r0, [r4, #304]	@ 0x130
70101d20:	4b7b      	ldr	r3, [pc, #492]	@ (70101f10 <HAL_RCCEx_PeriphCLKConfig+0x40c>)
70101d22:	4298      	cmp	r0, r3
70101d24:	f040 86ca 	bne.w	70102abc <HAL_RCCEx_PeriphCLKConfig+0xfb8>
70101d28:	4a74      	ldr	r2, [pc, #464]	@ (70101efc <HAL_RCCEx_PeriphCLKConfig+0x3f8>)
70101d2a:	6a61      	ldr	r1, [r4, #36]	@ 0x24
70101d2c:	f8d2 30d0 	ldr.w	r3, [r2, #208]	@ 0xd0
70101d30:	6a27      	ldr	r7, [r4, #32]
70101d32:	f023 5343 	bic.w	r3, r3, #817889280	@ 0x30c00000
70101d36:	f423 137c 	bic.w	r3, r3, #4128768	@ 0x3f0000
70101d3a:	3901      	subs	r1, #1
70101d3c:	433b      	orrs	r3, r7
70101d3e:	ea43 4301 	orr.w	r3, r3, r1, lsl #16
70101d42:	f8c2 30d0 	str.w	r3, [r2, #208]	@ 0xd0
70101d46:	2308      	movs	r3, #8
70101d48:	f8c2 3a40 	str.w	r3, [r2, #2624]	@ 0xa40
70101d4c:	f7ff fec8 	bl	70101ae0 <LL_RCC_SetClockSource>
70101d50:	07ef      	lsls	r7, r5, #31
70101d52:	d525      	bpl.n	70101da0 <HAL_RCCEx_PeriphCLKConfig+0x29c>
70101d54:	f8d4 20bc 	ldr.w	r2, [r4, #188]	@ 0xbc
70101d58:	4968      	ldr	r1, [pc, #416]	@ (70101efc <HAL_RCCEx_PeriphCLKConfig+0x3f8>)
70101d5a:	2a20      	cmp	r2, #32
70101d5c:	f040 86cc 	bne.w	70102af8 <HAL_RCCEx_PeriphCLKConfig+0xff4>
70101d60:	f8d1 30dc 	ldr.w	r3, [r1, #220]	@ 0xdc
70101d64:	6be0      	ldr	r0, [r4, #60]	@ 0x3c
70101d66:	6ba7      	ldr	r7, [r4, #56]	@ 0x38
70101d68:	f023 5343 	bic.w	r3, r3, #817889280	@ 0x30c00000
70101d6c:	f423 137c 	bic.w	r3, r3, #4128768	@ 0x3f0000
70101d70:	3801      	subs	r0, #1
70101d72:	433b      	orrs	r3, r7
70101d74:	ea43 4300 	orr.w	r3, r3, r0, lsl #16
70101d78:	f8c1 30dc 	str.w	r3, [r1, #220]	@ 0xdc
70101d7c:	2340      	movs	r3, #64	@ 0x40
70101d7e:	f8c1 3a40 	str.w	r3, [r1, #2624]	@ 0xa40
70101d82:	485e      	ldr	r0, [pc, #376]	@ (70101efc <HAL_RCCEx_PeriphCLKConfig+0x3f8>)
70101d84:	f8d4 10c0 	ldr.w	r1, [r4, #192]	@ 0xc0
70101d88:	f8d0 3144 	ldr.w	r3, [r0, #324]	@ 0x144
70101d8c:	3901      	subs	r1, #1
70101d8e:	f423 437f 	bic.w	r3, r3, #65280	@ 0xff00
70101d92:	f023 0370 	bic.w	r3, r3, #112	@ 0x70
70101d96:	4313      	orrs	r3, r2
70101d98:	ea43 2301 	orr.w	r3, r3, r1, lsl #8
70101d9c:	f8c0 3144 	str.w	r3, [r0, #324]	@ 0x144
70101da0:	07a8      	lsls	r0, r5, #30
70101da2:	d51e      	bpl.n	70101de2 <HAL_RCCEx_PeriphCLKConfig+0x2de>
70101da4:	f8d4 10c4 	ldr.w	r1, [r4, #196]	@ 0xc4
70101da8:	4a54      	ldr	r2, [pc, #336]	@ (70101efc <HAL_RCCEx_PeriphCLKConfig+0x3f8>)
70101daa:	2902      	cmp	r1, #2
70101dac:	f040 86be 	bne.w	70102b2c <HAL_RCCEx_PeriphCLKConfig+0x1028>
70101db0:	f8d2 30dc 	ldr.w	r3, [r2, #220]	@ 0xdc
70101db4:	6be0      	ldr	r0, [r4, #60]	@ 0x3c
70101db6:	6ba7      	ldr	r7, [r4, #56]	@ 0x38
70101db8:	f023 5343 	bic.w	r3, r3, #817889280	@ 0x30c00000
70101dbc:	f423 137c 	bic.w	r3, r3, #4128768	@ 0x3f0000
70101dc0:	3801      	subs	r0, #1
70101dc2:	433b      	orrs	r3, r7
70101dc4:	ea43 4300 	orr.w	r3, r3, r0, lsl #16
70101dc8:	f8c2 30dc 	str.w	r3, [r2, #220]	@ 0xdc
70101dcc:	2340      	movs	r3, #64	@ 0x40
70101dce:	f8c2 3a40 	str.w	r3, [r2, #2624]	@ 0xa40
70101dd2:	4a4a      	ldr	r2, [pc, #296]	@ (70101efc <HAL_RCCEx_PeriphCLKConfig+0x3f8>)
70101dd4:	f8d2 3144 	ldr.w	r3, [r2, #324]	@ 0x144
70101dd8:	f023 0307 	bic.w	r3, r3, #7
70101ddc:	430b      	orrs	r3, r1
70101dde:	f8c2 3144 	str.w	r3, [r2, #324]	@ 0x144
70101de2:	0729      	lsls	r1, r5, #28
70101de4:	d514      	bpl.n	70101e10 <HAL_RCCEx_PeriphCLKConfig+0x30c>
70101de6:	4a45      	ldr	r2, [pc, #276]	@ (70101efc <HAL_RCCEx_PeriphCLKConfig+0x3f8>)
70101de8:	f8d4 1094 	ldr.w	r1, [r4, #148]	@ 0x94
70101dec:	f8d2 3108 	ldr.w	r3, [r2, #264]	@ 0x108
70101df0:	f8d4 0090 	ldr.w	r0, [r4, #144]	@ 0x90
70101df4:	f023 5343 	bic.w	r3, r3, #817889280	@ 0x30c00000
70101df8:	f423 137c 	bic.w	r3, r3, #4128768	@ 0x3f0000
70101dfc:	3901      	subs	r1, #1
70101dfe:	4303      	orrs	r3, r0
70101e00:	ea43 4301 	orr.w	r3, r3, r1, lsl #16
70101e04:	f8c2 3108 	str.w	r3, [r2, #264]	@ 0x108
70101e08:	f44f 3300 	mov.w	r3, #131072	@ 0x20000
70101e0c:	f8c2 3a40 	str.w	r3, [r2, #2624]	@ 0xa40
70101e10:	06ea      	lsls	r2, r5, #27
70101e12:	d522      	bpl.n	70101e5a <HAL_RCCEx_PeriphCLKConfig+0x356>
70101e14:	f8d4 10c8 	ldr.w	r1, [r4, #200]	@ 0xc8
70101e18:	4a38      	ldr	r2, [pc, #224]	@ (70101efc <HAL_RCCEx_PeriphCLKConfig+0x3f8>)
70101e1a:	f5b1 1f00 	cmp.w	r1, #2097152	@ 0x200000
70101e1e:	f040 869f 	bne.w	70102b60 <HAL_RCCEx_PeriphCLKConfig+0x105c>
70101e22:	f8d2 3104 	ldr.w	r3, [r2, #260]	@ 0x104
70101e26:	f8d4 008c 	ldr.w	r0, [r4, #140]	@ 0x8c
70101e2a:	f8d4 7088 	ldr.w	r7, [r4, #136]	@ 0x88
70101e2e:	f023 5343 	bic.w	r3, r3, #817889280	@ 0x30c00000
70101e32:	f423 137c 	bic.w	r3, r3, #4128768	@ 0x3f0000
70101e36:	3801      	subs	r0, #1
70101e38:	433b      	orrs	r3, r7
70101e3a:	ea43 4300 	orr.w	r3, r3, r0, lsl #16
70101e3e:	f8c2 3104 	str.w	r3, [r2, #260]	@ 0x104
70101e42:	f44f 3380 	mov.w	r3, #65536	@ 0x10000
70101e46:	f8c2 3a40 	str.w	r3, [r2, #2624]	@ 0xa40
70101e4a:	4a2c      	ldr	r2, [pc, #176]	@ (70101efc <HAL_RCCEx_PeriphCLKConfig+0x3f8>)
70101e4c:	f8d2 3144 	ldr.w	r3, [r2, #324]	@ 0x144
70101e50:	f423 1340 	bic.w	r3, r3, #3145728	@ 0x300000
70101e54:	430b      	orrs	r3, r1
70101e56:	f8c2 3144 	str.w	r3, [r2, #324]	@ 0x144
70101e5a:	06ab      	lsls	r3, r5, #26
70101e5c:	d520      	bpl.n	70101ea0 <HAL_RCCEx_PeriphCLKConfig+0x39c>
70101e5e:	f8d4 10cc 	ldr.w	r1, [r4, #204]	@ 0xcc
70101e62:	4a26      	ldr	r2, [pc, #152]	@ (70101efc <HAL_RCCEx_PeriphCLKConfig+0x3f8>)
70101e64:	f5b1 5f00 	cmp.w	r1, #8192	@ 0x2000
70101e68:	f040 8682 	bne.w	70102b70 <HAL_RCCEx_PeriphCLKConfig+0x106c>
70101e6c:	f8d2 30f0 	ldr.w	r3, [r2, #240]	@ 0xf0
70101e70:	6e60      	ldr	r0, [r4, #100]	@ 0x64
70101e72:	6e27      	ldr	r7, [r4, #96]	@ 0x60
70101e74:	f023 5343 	bic.w	r3, r3, #817889280	@ 0x30c00000
70101e78:	f423 137c 	bic.w	r3, r3, #4128768	@ 0x3f0000
70101e7c:	3801      	subs	r0, #1
70101e7e:	433b      	orrs	r3, r7
70101e80:	ea43 4300 	orr.w	r3, r3, r0, lsl #16
70101e84:	f8c2 30f0 	str.w	r3, [r2, #240]	@ 0xf0
70101e88:	f44f 6300 	mov.w	r3, #2048	@ 0x800
70101e8c:	f8c2 3a40 	str.w	r3, [r2, #2624]	@ 0xa40
70101e90:	4a1a      	ldr	r2, [pc, #104]	@ (70101efc <HAL_RCCEx_PeriphCLKConfig+0x3f8>)
70101e92:	f8d2 3148 	ldr.w	r3, [r2, #328]	@ 0x148
70101e96:	f423 5340 	bic.w	r3, r3, #12288	@ 0x3000
70101e9a:	430b      	orrs	r3, r1
70101e9c:	f8c2 3148 	str.w	r3, [r2, #328]	@ 0x148
70101ea0:	066f      	lsls	r7, r5, #25
70101ea2:	d509      	bpl.n	70101eb8 <HAL_RCCEx_PeriphCLKConfig+0x3b4>
70101ea4:	4a15      	ldr	r2, [pc, #84]	@ (70101efc <HAL_RCCEx_PeriphCLKConfig+0x3f8>)
70101ea6:	f8d4 10d0 	ldr.w	r1, [r4, #208]	@ 0xd0
70101eaa:	f8d2 3148 	ldr.w	r3, [r2, #328]	@ 0x148
70101eae:	f423 23e0 	bic.w	r3, r3, #458752	@ 0x70000
70101eb2:	430b      	orrs	r3, r1
70101eb4:	f8c2 3148 	str.w	r3, [r2, #328]	@ 0x148
70101eb8:	0628      	lsls	r0, r5, #24
70101eba:	d509      	bpl.n	70101ed0 <HAL_RCCEx_PeriphCLKConfig+0x3cc>
70101ebc:	4a0f      	ldr	r2, [pc, #60]	@ (70101efc <HAL_RCCEx_PeriphCLKConfig+0x3f8>)
70101ebe:	f8d4 10d4 	ldr.w	r1, [r4, #212]	@ 0xd4
70101ec2:	f8d2 3148 	ldr.w	r3, [r2, #328]	@ 0x148
70101ec6:	f423 1380 	bic.w	r3, r3, #1048576	@ 0x100000
70101eca:	430b      	orrs	r3, r1
70101ecc:	f8c2 3148 	str.w	r3, [r2, #328]	@ 0x148
70101ed0:	05e9      	lsls	r1, r5, #23
70101ed2:	d509      	bpl.n	70101ee8 <HAL_RCCEx_PeriphCLKConfig+0x3e4>
70101ed4:	4a09      	ldr	r2, [pc, #36]	@ (70101efc <HAL_RCCEx_PeriphCLKConfig+0x3f8>)
70101ed6:	f8d4 10d8 	ldr.w	r1, [r4, #216]	@ 0xd8
70101eda:	f8d2 3148 	ldr.w	r3, [r2, #328]	@ 0x148
70101ede:	f023 7380 	bic.w	r3, r3, #16777216	@ 0x1000000
70101ee2:	430b      	orrs	r3, r1
70101ee4:	f8c2 3148 	str.w	r3, [r2, #328]	@ 0x148
70101ee8:	05aa      	lsls	r2, r5, #22
70101eea:	d532      	bpl.n	70101f52 <HAL_RCCEx_PeriphCLKConfig+0x44e>
70101eec:	f8d4 10dc 	ldr.w	r1, [r4, #220]	@ 0xdc
70101ef0:	4a02      	ldr	r2, [pc, #8]	@ (70101efc <HAL_RCCEx_PeriphCLKConfig+0x3f8>)
70101ef2:	2902      	cmp	r1, #2
70101ef4:	f040 8644 	bne.w	70102b80 <HAL_RCCEx_PeriphCLKConfig+0x107c>
70101ef8:	e00c      	b.n	70101f14 <HAL_RCCEx_PeriphCLKConfig+0x410>
70101efa:	bf00      	nop
70101efc:	56028000 	.word	0x56028000
70101f00:	03020014 	.word	0x03020014
70101f04:	03020414 	.word	0x03020414
70101f08:	03020814 	.word	0x03020814
70101f0c:	0302001c 	.word	0x0302001c
70101f10:	0302041c 	.word	0x0302041c
70101f14:	f8d2 30f4 	ldr.w	r3, [r2, #244]	@ 0xf4
70101f18:	6ee0      	ldr	r0, [r4, #108]	@ 0x6c
70101f1a:	6ea7      	ldr	r7, [r4, #104]	@ 0x68
70101f1c:	f023 5343 	bic.w	r3, r3, #817889280	@ 0x30c00000
70101f20:	f423 137c 	bic.w	r3, r3, #4128768	@ 0x3f0000
70101f24:	3801      	subs	r0, #1
70101f26:	433b      	orrs	r3, r7
70101f28:	ea43 4300 	orr.w	r3, r3, r0, lsl #16
70101f2c:	f8c2 30f4 	str.w	r3, [r2, #244]	@ 0xf4
70101f30:	f44f 5380 	mov.w	r3, #4096	@ 0x1000
70101f34:	f8c2 3a40 	str.w	r3, [r2, #2624]	@ 0xa40
70101f38:	48c9      	ldr	r0, [pc, #804]	@ (70102260 <HAL_RCCEx_PeriphCLKConfig+0x75c>)
70101f3a:	f8d4 20e0 	ldr.w	r2, [r4, #224]	@ 0xe0
70101f3e:	f8d0 3148 	ldr.w	r3, [r0, #328]	@ 0x148
70101f42:	3a01      	subs	r2, #1
70101f44:	f023 03f3 	bic.w	r3, r3, #243	@ 0xf3
70101f48:	430b      	orrs	r3, r1
70101f4a:	ea43 1302 	orr.w	r3, r3, r2, lsl #4
70101f4e:	f8c0 3148 	str.w	r3, [r0, #328]	@ 0x148
70101f52:	056b      	lsls	r3, r5, #21
70101f54:	d521      	bpl.n	70101f9a <HAL_RCCEx_PeriphCLKConfig+0x496>
70101f56:	f8d4 10e4 	ldr.w	r1, [r4, #228]	@ 0xe4
70101f5a:	4ac1      	ldr	r2, [pc, #772]	@ (70102260 <HAL_RCCEx_PeriphCLKConfig+0x75c>)
70101f5c:	2902      	cmp	r1, #2
70101f5e:	f040 8616 	bne.w	70102b8e <HAL_RCCEx_PeriphCLKConfig+0x108a>
70101f62:	f8d2 310c 	ldr.w	r3, [r2, #268]	@ 0x10c
70101f66:	f8d4 009c 	ldr.w	r0, [r4, #156]	@ 0x9c
70101f6a:	f8d4 7098 	ldr.w	r7, [r4, #152]	@ 0x98
70101f6e:	f023 5343 	bic.w	r3, r3, #817889280	@ 0x30c00000
70101f72:	f423 137c 	bic.w	r3, r3, #4128768	@ 0x3f0000
70101f76:	3801      	subs	r0, #1
70101f78:	433b      	orrs	r3, r7
70101f7a:	ea43 4300 	orr.w	r3, r3, r0, lsl #16
70101f7e:	f8c2 310c 	str.w	r3, [r2, #268]	@ 0x10c
70101f82:	f44f 2380 	mov.w	r3, #262144	@ 0x40000
70101f86:	f8c2 3a40 	str.w	r3, [r2, #2624]	@ 0xa40
70101f8a:	4ab5      	ldr	r2, [pc, #724]	@ (70102260 <HAL_RCCEx_PeriphCLKConfig+0x75c>)
70101f8c:	f8d2 314c 	ldr.w	r3, [r2, #332]	@ 0x14c
70101f90:	f023 0303 	bic.w	r3, r3, #3
70101f94:	430b      	orrs	r3, r1
70101f96:	f8c2 314c 	str.w	r3, [r2, #332]	@ 0x14c
70101f9a:	04ef      	lsls	r7, r5, #19
70101f9c:	d51a      	bpl.n	70101fd4 <HAL_RCCEx_PeriphCLKConfig+0x4d0>
70101f9e:	f8d4 00e8 	ldr.w	r0, [r4, #232]	@ 0xe8
70101fa2:	4bb0      	ldr	r3, [pc, #704]	@ (70102264 <HAL_RCCEx_PeriphCLKConfig+0x760>)
70101fa4:	4298      	cmp	r0, r3
70101fa6:	f040 85f9 	bne.w	70102b9c <HAL_RCCEx_PeriphCLKConfig+0x1098>
70101faa:	4aad      	ldr	r2, [pc, #692]	@ (70102260 <HAL_RCCEx_PeriphCLKConfig+0x75c>)
70101fac:	6d61      	ldr	r1, [r4, #84]	@ 0x54
70101fae:	f8d2 30e8 	ldr.w	r3, [r2, #232]	@ 0xe8
70101fb2:	6d27      	ldr	r7, [r4, #80]	@ 0x50
70101fb4:	f023 5343 	bic.w	r3, r3, #817889280	@ 0x30c00000
70101fb8:	f423 137c 	bic.w	r3, r3, #4128768	@ 0x3f0000
70101fbc:	3901      	subs	r1, #1
70101fbe:	433b      	orrs	r3, r7
70101fc0:	ea43 4301 	orr.w	r3, r3, r1, lsl #16
70101fc4:	f8c2 30e8 	str.w	r3, [r2, #232]	@ 0xe8
70101fc8:	f44f 7300 	mov.w	r3, #512	@ 0x200
70101fcc:	f8c2 3a40 	str.w	r3, [r2, #2624]	@ 0xa40
70101fd0:	f7ff fd86 	bl	70101ae0 <LL_RCC_SetClockSource>
70101fd4:	04a8      	lsls	r0, r5, #18
70101fd6:	d51a      	bpl.n	7010200e <HAL_RCCEx_PeriphCLKConfig+0x50a>
70101fd8:	f8d4 00ec 	ldr.w	r0, [r4, #236]	@ 0xec
70101fdc:	4ba2      	ldr	r3, [pc, #648]	@ (70102268 <HAL_RCCEx_PeriphCLKConfig+0x764>)
70101fde:	4298      	cmp	r0, r3
70101fe0:	f040 85fb 	bne.w	70102bda <HAL_RCCEx_PeriphCLKConfig+0x10d6>
70101fe4:	4a9e      	ldr	r2, [pc, #632]	@ (70102260 <HAL_RCCEx_PeriphCLKConfig+0x75c>)
70101fe6:	6d61      	ldr	r1, [r4, #84]	@ 0x54
70101fe8:	f8d2 30e8 	ldr.w	r3, [r2, #232]	@ 0xe8
70101fec:	6d27      	ldr	r7, [r4, #80]	@ 0x50
70101fee:	f023 5343 	bic.w	r3, r3, #817889280	@ 0x30c00000
70101ff2:	f423 137c 	bic.w	r3, r3, #4128768	@ 0x3f0000
70101ff6:	3901      	subs	r1, #1
70101ff8:	433b      	orrs	r3, r7
70101ffa:	ea43 4301 	orr.w	r3, r3, r1, lsl #16
70101ffe:	f8c2 30e8 	str.w	r3, [r2, #232]	@ 0xe8
70102002:	f44f 7300 	mov.w	r3, #512	@ 0x200
70102006:	f8c2 3a40 	str.w	r3, [r2, #2624]	@ 0xa40
7010200a:	f7ff fd69 	bl	70101ae0 <LL_RCC_SetClockSource>
7010200e:	0469      	lsls	r1, r5, #17
70102010:	d51a      	bpl.n	70102048 <HAL_RCCEx_PeriphCLKConfig+0x544>
70102012:	f8d4 00f0 	ldr.w	r0, [r4, #240]	@ 0xf0
70102016:	4b95      	ldr	r3, [pc, #596]	@ (7010226c <HAL_RCCEx_PeriphCLKConfig+0x768>)
70102018:	4298      	cmp	r0, r3
7010201a:	f040 85fd 	bne.w	70102c18 <HAL_RCCEx_PeriphCLKConfig+0x1114>
7010201e:	4a90      	ldr	r2, [pc, #576]	@ (70102260 <HAL_RCCEx_PeriphCLKConfig+0x75c>)
70102020:	6d61      	ldr	r1, [r4, #84]	@ 0x54
70102022:	f8d2 30e8 	ldr.w	r3, [r2, #232]	@ 0xe8
70102026:	6d27      	ldr	r7, [r4, #80]	@ 0x50
70102028:	f023 5343 	bic.w	r3, r3, #817889280	@ 0x30c00000
7010202c:	f423 137c 	bic.w	r3, r3, #4128768	@ 0x3f0000
70102030:	3901      	subs	r1, #1
70102032:	433b      	orrs	r3, r7
70102034:	ea43 4301 	orr.w	r3, r3, r1, lsl #16
70102038:	f8c2 30e8 	str.w	r3, [r2, #232]	@ 0xe8
7010203c:	f44f 7300 	mov.w	r3, #512	@ 0x200
70102040:	f8c2 3a40 	str.w	r3, [r2, #2624]	@ 0xa40
70102044:	f7ff fd4c 	bl	70101ae0 <LL_RCC_SetClockSource>
70102048:	042a      	lsls	r2, r5, #16
7010204a:	d51a      	bpl.n	70102082 <HAL_RCCEx_PeriphCLKConfig+0x57e>
7010204c:	f8d4 00f4 	ldr.w	r0, [r4, #244]	@ 0xf4
70102050:	4b87      	ldr	r3, [pc, #540]	@ (70102270 <HAL_RCCEx_PeriphCLKConfig+0x76c>)
70102052:	4298      	cmp	r0, r3
70102054:	f040 85ff 	bne.w	70102c56 <HAL_RCCEx_PeriphCLKConfig+0x1152>
70102058:	4a81      	ldr	r2, [pc, #516]	@ (70102260 <HAL_RCCEx_PeriphCLKConfig+0x75c>)
7010205a:	6d61      	ldr	r1, [r4, #84]	@ 0x54
7010205c:	f8d2 30e8 	ldr.w	r3, [r2, #232]	@ 0xe8
70102060:	6d27      	ldr	r7, [r4, #80]	@ 0x50
70102062:	f023 5343 	bic.w	r3, r3, #817889280	@ 0x30c00000
70102066:	f423 137c 	bic.w	r3, r3, #4128768	@ 0x3f0000
7010206a:	3901      	subs	r1, #1
7010206c:	433b      	orrs	r3, r7
7010206e:	ea43 4301 	orr.w	r3, r3, r1, lsl #16
70102072:	f8c2 30e8 	str.w	r3, [r2, #232]	@ 0xe8
70102076:	f44f 7300 	mov.w	r3, #512	@ 0x200
7010207a:	f8c2 3a40 	str.w	r3, [r2, #2624]	@ 0xa40
7010207e:	f7ff fd2f 	bl	70101ae0 <LL_RCC_SetClockSource>
70102082:	03eb      	lsls	r3, r5, #15
70102084:	d51a      	bpl.n	701020bc <HAL_RCCEx_PeriphCLKConfig+0x5b8>
70102086:	f8d4 00f8 	ldr.w	r0, [r4, #248]	@ 0xf8
7010208a:	4b7a      	ldr	r3, [pc, #488]	@ (70102274 <HAL_RCCEx_PeriphCLKConfig+0x770>)
7010208c:	4298      	cmp	r0, r3
7010208e:	f040 8627 	bne.w	70102ce0 <HAL_RCCEx_PeriphCLKConfig+0x11dc>
70102092:	4a73      	ldr	r2, [pc, #460]	@ (70102260 <HAL_RCCEx_PeriphCLKConfig+0x75c>)
70102094:	6d61      	ldr	r1, [r4, #84]	@ 0x54
70102096:	f8d2 30e8 	ldr.w	r3, [r2, #232]	@ 0xe8
7010209a:	6d27      	ldr	r7, [r4, #80]	@ 0x50
7010209c:	f023 5343 	bic.w	r3, r3, #817889280	@ 0x30c00000
701020a0:	f423 137c 	bic.w	r3, r3, #4128768	@ 0x3f0000
701020a4:	3901      	subs	r1, #1
701020a6:	433b      	orrs	r3, r7
701020a8:	ea43 4301 	orr.w	r3, r3, r1, lsl #16
701020ac:	f8c2 30e8 	str.w	r3, [r2, #232]	@ 0xe8
701020b0:	f44f 7300 	mov.w	r3, #512	@ 0x200
701020b4:	f8c2 3a40 	str.w	r3, [r2, #2624]	@ 0xa40
701020b8:	f7ff fd12 	bl	70101ae0 <LL_RCC_SetClockSource>
701020bc:	03af      	lsls	r7, r5, #14
701020be:	d51a      	bpl.n	701020f6 <HAL_RCCEx_PeriphCLKConfig+0x5f2>
701020c0:	f8d4 00fc 	ldr.w	r0, [r4, #252]	@ 0xfc
701020c4:	4b6c      	ldr	r3, [pc, #432]	@ (70102278 <HAL_RCCEx_PeriphCLKConfig+0x774>)
701020c6:	4298      	cmp	r0, r3
701020c8:	f040 8629 	bne.w	70102d1e <HAL_RCCEx_PeriphCLKConfig+0x121a>
701020cc:	4a64      	ldr	r2, [pc, #400]	@ (70102260 <HAL_RCCEx_PeriphCLKConfig+0x75c>)
701020ce:	6d61      	ldr	r1, [r4, #84]	@ 0x54
701020d0:	f8d2 30e8 	ldr.w	r3, [r2, #232]	@ 0xe8
701020d4:	6d27      	ldr	r7, [r4, #80]	@ 0x50
701020d6:	f023 5343 	bic.w	r3, r3, #817889280	@ 0x30c00000
701020da:	f423 137c 	bic.w	r3, r3, #4128768	@ 0x3f0000
701020de:	3901      	subs	r1, #1
701020e0:	433b      	orrs	r3, r7
701020e2:	ea43 4301 	orr.w	r3, r3, r1, lsl #16
701020e6:	f8c2 30e8 	str.w	r3, [r2, #232]	@ 0xe8
701020ea:	f44f 7300 	mov.w	r3, #512	@ 0x200
701020ee:	f8c2 3a40 	str.w	r3, [r2, #2624]	@ 0xa40
701020f2:	f7ff fcf5 	bl	70101ae0 <LL_RCC_SetClockSource>
701020f6:	0368      	lsls	r0, r5, #13
701020f8:	d51a      	bpl.n	70102130 <HAL_RCCEx_PeriphCLKConfig+0x62c>
701020fa:	f8d4 0100 	ldr.w	r0, [r4, #256]	@ 0x100
701020fe:	4b5f      	ldr	r3, [pc, #380]	@ (7010227c <HAL_RCCEx_PeriphCLKConfig+0x778>)
70102100:	4298      	cmp	r0, r3
70102102:	f040 862b 	bne.w	70102d5c <HAL_RCCEx_PeriphCLKConfig+0x1258>
70102106:	4a56      	ldr	r2, [pc, #344]	@ (70102260 <HAL_RCCEx_PeriphCLKConfig+0x75c>)
70102108:	6fe1      	ldr	r1, [r4, #124]	@ 0x7c
7010210a:	f8d2 30fc 	ldr.w	r3, [r2, #252]	@ 0xfc
7010210e:	6fa7      	ldr	r7, [r4, #120]	@ 0x78
70102110:	f023 5343 	bic.w	r3, r3, #817889280	@ 0x30c00000
70102114:	f423 137c 	bic.w	r3, r3, #4128768	@ 0x3f0000
70102118:	3901      	subs	r1, #1
7010211a:	433b      	orrs	r3, r7
7010211c:	ea43 4301 	orr.w	r3, r3, r1, lsl #16
70102120:	f8c2 30fc 	str.w	r3, [r2, #252]	@ 0xfc
70102124:	f44f 4380 	mov.w	r3, #16384	@ 0x4000
70102128:	f8c2 3a40 	str.w	r3, [r2, #2624]	@ 0xa40
7010212c:	f7ff fcd8 	bl	70101ae0 <LL_RCC_SetClockSource>
70102130:	0329      	lsls	r1, r5, #12
70102132:	d51a      	bpl.n	7010216a <HAL_RCCEx_PeriphCLKConfig+0x666>
70102134:	f8d4 0104 	ldr.w	r0, [r4, #260]	@ 0x104
70102138:	4b51      	ldr	r3, [pc, #324]	@ (70102280 <HAL_RCCEx_PeriphCLKConfig+0x77c>)
7010213a:	4298      	cmp	r0, r3
7010213c:	f040 8617 	bne.w	70102d6e <HAL_RCCEx_PeriphCLKConfig+0x126a>
70102140:	4a47      	ldr	r2, [pc, #284]	@ (70102260 <HAL_RCCEx_PeriphCLKConfig+0x75c>)
70102142:	6fe1      	ldr	r1, [r4, #124]	@ 0x7c
70102144:	f8d2 30fc 	ldr.w	r3, [r2, #252]	@ 0xfc
70102148:	6fa7      	ldr	r7, [r4, #120]	@ 0x78
7010214a:	f023 5343 	bic.w	r3, r3, #817889280	@ 0x30c00000
7010214e:	f423 137c 	bic.w	r3, r3, #4128768	@ 0x3f0000
70102152:	3901      	subs	r1, #1
70102154:	433b      	orrs	r3, r7
70102156:	ea43 4301 	orr.w	r3, r3, r1, lsl #16
7010215a:	f8c2 30fc 	str.w	r3, [r2, #252]	@ 0xfc
7010215e:	f44f 4380 	mov.w	r3, #16384	@ 0x4000
70102162:	f8c2 3a40 	str.w	r3, [r2, #2624]	@ 0xa40
70102166:	f7ff fcbb 	bl	70101ae0 <LL_RCC_SetClockSource>
7010216a:	02ea      	lsls	r2, r5, #11
7010216c:	d51a      	bpl.n	701021a4 <HAL_RCCEx_PeriphCLKConfig+0x6a0>
7010216e:	f8d4 0108 	ldr.w	r0, [r4, #264]	@ 0x108
70102172:	4b44      	ldr	r3, [pc, #272]	@ (70102284 <HAL_RCCEx_PeriphCLKConfig+0x780>)
70102174:	4298      	cmp	r0, r3
70102176:	f040 8603 	bne.w	70102d80 <HAL_RCCEx_PeriphCLKConfig+0x127c>
7010217a:	4a39      	ldr	r2, [pc, #228]	@ (70102260 <HAL_RCCEx_PeriphCLKConfig+0x75c>)
7010217c:	6fe1      	ldr	r1, [r4, #124]	@ 0x7c
7010217e:	f8d2 30fc 	ldr.w	r3, [r2, #252]	@ 0xfc
70102182:	6fa7      	ldr	r7, [r4, #120]	@ 0x78
70102184:	f023 5343 	bic.w	r3, r3, #817889280	@ 0x30c00000
70102188:	f423 137c 	bic.w	r3, r3, #4128768	@ 0x3f0000
7010218c:	3901      	subs	r1, #1
7010218e:	433b      	orrs	r3, r7
70102190:	ea43 4301 	orr.w	r3, r3, r1, lsl #16
70102194:	f8c2 30fc 	str.w	r3, [r2, #252]	@ 0xfc
70102198:	f44f 4380 	mov.w	r3, #16384	@ 0x4000
7010219c:	f8c2 3a40 	str.w	r3, [r2, #2624]	@ 0xa40
701021a0:	f7ff fc9e 	bl	70101ae0 <LL_RCC_SetClockSource>
701021a4:	02ab      	lsls	r3, r5, #10
701021a6:	d51a      	bpl.n	701021de <HAL_RCCEx_PeriphCLKConfig+0x6da>
701021a8:	f8d4 010c 	ldr.w	r0, [r4, #268]	@ 0x10c
701021ac:	4b36      	ldr	r3, [pc, #216]	@ (70102288 <HAL_RCCEx_PeriphCLKConfig+0x784>)
701021ae:	4298      	cmp	r0, r3
701021b0:	f040 85ef 	bne.w	70102d92 <HAL_RCCEx_PeriphCLKConfig+0x128e>
701021b4:	4a2a      	ldr	r2, [pc, #168]	@ (70102260 <HAL_RCCEx_PeriphCLKConfig+0x75c>)
701021b6:	6fe1      	ldr	r1, [r4, #124]	@ 0x7c
701021b8:	f8d2 30fc 	ldr.w	r3, [r2, #252]	@ 0xfc
701021bc:	6fa7      	ldr	r7, [r4, #120]	@ 0x78
701021be:	f023 5343 	bic.w	r3, r3, #817889280	@ 0x30c00000
701021c2:	f423 137c 	bic.w	r3, r3, #4128768	@ 0x3f0000
701021c6:	3901      	subs	r1, #1
701021c8:	433b      	orrs	r3, r7
701021ca:	ea43 4301 	orr.w	r3, r3, r1, lsl #16
701021ce:	f8c2 30fc 	str.w	r3, [r2, #252]	@ 0xfc
701021d2:	f44f 4380 	mov.w	r3, #16384	@ 0x4000
701021d6:	f8c2 3a40 	str.w	r3, [r2, #2624]	@ 0xa40
701021da:	f7ff fc81 	bl	70101ae0 <LL_RCC_SetClockSource>
701021de:	026f      	lsls	r7, r5, #9
701021e0:	d51a      	bpl.n	70102218 <HAL_RCCEx_PeriphCLKConfig+0x714>
701021e2:	f8d4 0110 	ldr.w	r0, [r4, #272]	@ 0x110
701021e6:	4b29      	ldr	r3, [pc, #164]	@ (7010228c <HAL_RCCEx_PeriphCLKConfig+0x788>)
701021e8:	4298      	cmp	r0, r3
701021ea:	f040 85db 	bne.w	70102da4 <HAL_RCCEx_PeriphCLKConfig+0x12a0>
701021ee:	4a1c      	ldr	r2, [pc, #112]	@ (70102260 <HAL_RCCEx_PeriphCLKConfig+0x75c>)
701021f0:	6fe1      	ldr	r1, [r4, #124]	@ 0x7c
701021f2:	f8d2 30fc 	ldr.w	r3, [r2, #252]	@ 0xfc
701021f6:	6fa7      	ldr	r7, [r4, #120]	@ 0x78
701021f8:	f023 5343 	bic.w	r3, r3, #817889280	@ 0x30c00000
701021fc:	f423 137c 	bic.w	r3, r3, #4128768	@ 0x3f0000
70102200:	3901      	subs	r1, #1
70102202:	433b      	orrs	r3, r7
70102204:	ea43 4301 	orr.w	r3, r3, r1, lsl #16
70102208:	f8c2 30fc 	str.w	r3, [r2, #252]	@ 0xfc
7010220c:	f44f 4380 	mov.w	r3, #16384	@ 0x4000
70102210:	f8c2 3a40 	str.w	r3, [r2, #2624]	@ 0xa40
70102214:	f7ff fc64 	bl	70101ae0 <LL_RCC_SetClockSource>
70102218:	0228      	lsls	r0, r5, #8
7010221a:	d539      	bpl.n	70102290 <HAL_RCCEx_PeriphCLKConfig+0x78c>
7010221c:	f8d4 1114 	ldr.w	r1, [r4, #276]	@ 0x114
70102220:	4a0f      	ldr	r2, [pc, #60]	@ (70102260 <HAL_RCCEx_PeriphCLKConfig+0x75c>)
70102222:	f5b1 7f00 	cmp.w	r1, #512	@ 0x200
70102226:	f040 85c6 	bne.w	70102db6 <HAL_RCCEx_PeriphCLKConfig+0x12b2>
7010222a:	f8d2 30e4 	ldr.w	r3, [r2, #228]	@ 0xe4
7010222e:	6ce0      	ldr	r0, [r4, #76]	@ 0x4c
70102230:	6ca7      	ldr	r7, [r4, #72]	@ 0x48
70102232:	f023 5343 	bic.w	r3, r3, #817889280	@ 0x30c00000
70102236:	f423 137c 	bic.w	r3, r3, #4128768	@ 0x3f0000
7010223a:	3801      	subs	r0, #1
7010223c:	433b      	orrs	r3, r7
7010223e:	ea43 4300 	orr.w	r3, r3, r0, lsl #16
70102242:	f8c2 30e4 	str.w	r3, [r2, #228]	@ 0xe4
70102246:	f44f 7380 	mov.w	r3, #256	@ 0x100
7010224a:	f8c2 3a40 	str.w	r3, [r2, #2624]	@ 0xa40
7010224e:	4a04      	ldr	r2, [pc, #16]	@ (70102260 <HAL_RCCEx_PeriphCLKConfig+0x75c>)
70102250:	f8d2 3178 	ldr.w	r3, [r2, #376]	@ 0x178
70102254:	f423 63e0 	bic.w	r3, r3, #1792	@ 0x700
70102258:	430b      	orrs	r3, r1
7010225a:	f8c2 3178 	str.w	r3, [r2, #376]	@ 0x178
7010225e:	e017      	b.n	70102290 <HAL_RCCEx_PeriphCLKConfig+0x78c>
70102260:	56028000 	.word	0x56028000
70102264:	0702000c 	.word	0x0702000c
70102268:	0702040c 	.word	0x0702040c
7010226c:	0702080c 	.word	0x0702080c
70102270:	07020c0c 	.word	0x07020c0c
70102274:	0702100c 	.word	0x0702100c
70102278:	0702140c 	.word	0x0702140c
7010227c:	0702082c 	.word	0x0702082c
70102280:	07020c2c 	.word	0x07020c2c
70102284:	0702102c 	.word	0x0702102c
70102288:	0702142c 	.word	0x0702142c
7010228c:	0702182c 	.word	0x0702182c
70102290:	01e9      	lsls	r1, r5, #7
70102292:	d522      	bpl.n	701022da <HAL_RCCEx_PeriphCLKConfig+0x7d6>
70102294:	f8d4 1118 	ldr.w	r1, [r4, #280]	@ 0x118
70102298:	4ac9      	ldr	r2, [pc, #804]	@ (701025c0 <HAL_RCCEx_PeriphCLKConfig+0xabc>)
7010229a:	f1b1 7f00 	cmp.w	r1, #33554432	@ 0x2000000
7010229e:	f040 85a7 	bne.w	70102df0 <HAL_RCCEx_PeriphCLKConfig+0x12ec>
701022a2:	f8d2 3100 	ldr.w	r3, [r2, #256]	@ 0x100
701022a6:	f8d4 0084 	ldr.w	r0, [r4, #132]	@ 0x84
701022aa:	f8d4 7080 	ldr.w	r7, [r4, #128]	@ 0x80
701022ae:	f023 5343 	bic.w	r3, r3, #817889280	@ 0x30c00000
701022b2:	f423 137c 	bic.w	r3, r3, #4128768	@ 0x3f0000
701022b6:	3801      	subs	r0, #1
701022b8:	433b      	orrs	r3, r7
701022ba:	ea43 4300 	orr.w	r3, r3, r0, lsl #16
701022be:	f8c2 3100 	str.w	r3, [r2, #256]	@ 0x100
701022c2:	f44f 4300 	mov.w	r3, #32768	@ 0x8000
701022c6:	f8c2 3a40 	str.w	r3, [r2, #2624]	@ 0xa40
701022ca:	4abd      	ldr	r2, [pc, #756]	@ (701025c0 <HAL_RCCEx_PeriphCLKConfig+0xabc>)
701022cc:	f8d2 3150 	ldr.w	r3, [r2, #336]	@ 0x150
701022d0:	f023 7340 	bic.w	r3, r3, #50331648	@ 0x3000000
701022d4:	430b      	orrs	r3, r1
701022d6:	f8c2 3150 	str.w	r3, [r2, #336]	@ 0x150
701022da:	01aa      	lsls	r2, r5, #6
701022dc:	d51f      	bpl.n	7010231e <HAL_RCCEx_PeriphCLKConfig+0x81a>
701022de:	f8d4 111c 	ldr.w	r1, [r4, #284]	@ 0x11c
701022e2:	4ab7      	ldr	r2, [pc, #732]	@ (701025c0 <HAL_RCCEx_PeriphCLKConfig+0xabc>)
701022e4:	f5b1 3f00 	cmp.w	r1, #131072	@ 0x20000
701022e8:	f040 858a 	bne.w	70102e00 <HAL_RCCEx_PeriphCLKConfig+0x12fc>
701022ec:	f8d2 30dc 	ldr.w	r3, [r2, #220]	@ 0xdc
701022f0:	6be0      	ldr	r0, [r4, #60]	@ 0x3c
701022f2:	6ba7      	ldr	r7, [r4, #56]	@ 0x38
701022f4:	f023 5343 	bic.w	r3, r3, #817889280	@ 0x30c00000
701022f8:	f423 137c 	bic.w	r3, r3, #4128768	@ 0x3f0000
701022fc:	3801      	subs	r0, #1
701022fe:	433b      	orrs	r3, r7
70102300:	ea43 4300 	orr.w	r3, r3, r0, lsl #16
70102304:	f8c2 30dc 	str.w	r3, [r2, #220]	@ 0xdc
70102308:	2340      	movs	r3, #64	@ 0x40
7010230a:	f8c2 3a40 	str.w	r3, [r2, #2624]	@ 0xa40
7010230e:	4aac      	ldr	r2, [pc, #688]	@ (701025c0 <HAL_RCCEx_PeriphCLKConfig+0xabc>)
70102310:	f8d2 3154 	ldr.w	r3, [r2, #340]	@ 0x154
70102314:	f423 23e0 	bic.w	r3, r3, #458752	@ 0x70000
70102318:	430b      	orrs	r3, r1
7010231a:	f8c2 3154 	str.w	r3, [r2, #340]	@ 0x154
7010231e:	016b      	lsls	r3, r5, #5
70102320:	d521      	bpl.n	70102366 <HAL_RCCEx_PeriphCLKConfig+0x862>
70102322:	f8d4 1120 	ldr.w	r1, [r4, #288]	@ 0x120
70102326:	4aa6      	ldr	r2, [pc, #664]	@ (701025c0 <HAL_RCCEx_PeriphCLKConfig+0xabc>)
70102328:	2920      	cmp	r1, #32
7010232a:	f040 8585 	bne.w	70102e38 <HAL_RCCEx_PeriphCLKConfig+0x1334>
7010232e:	f8d2 3110 	ldr.w	r3, [r2, #272]	@ 0x110
70102332:	f8d4 00a4 	ldr.w	r0, [r4, #164]	@ 0xa4
70102336:	f8d4 70a0 	ldr.w	r7, [r4, #160]	@ 0xa0
7010233a:	f023 5343 	bic.w	r3, r3, #817889280	@ 0x30c00000
7010233e:	f423 137c 	bic.w	r3, r3, #4128768	@ 0x3f0000
70102342:	3801      	subs	r0, #1
70102344:	433b      	orrs	r3, r7
70102346:	ea43 4300 	orr.w	r3, r3, r0, lsl #16
7010234a:	f8c2 3110 	str.w	r3, [r2, #272]	@ 0x110
7010234e:	f44f 2300 	mov.w	r3, #524288	@ 0x80000
70102352:	f8c2 3a40 	str.w	r3, [r2, #2624]	@ 0xa40
70102356:	4a9a      	ldr	r2, [pc, #616]	@ (701025c0 <HAL_RCCEx_PeriphCLKConfig+0xabc>)
70102358:	f8d2 315c 	ldr.w	r3, [r2, #348]	@ 0x15c
7010235c:	f023 0330 	bic.w	r3, r3, #48	@ 0x30
70102360:	430b      	orrs	r3, r1
70102362:	f8c2 315c 	str.w	r3, [r2, #348]	@ 0x15c
70102366:	00ef      	lsls	r7, r5, #3
70102368:	d519      	bpl.n	7010239e <HAL_RCCEx_PeriphCLKConfig+0x89a>
7010236a:	f8d4 0124 	ldr.w	r0, [r4, #292]	@ 0x124
7010236e:	4b95      	ldr	r3, [pc, #596]	@ (701025c4 <HAL_RCCEx_PeriphCLKConfig+0xac0>)
70102370:	4298      	cmp	r0, r3
70102372:	f040 8568 	bne.w	70102e46 <HAL_RCCEx_PeriphCLKConfig+0x1342>
70102376:	4a92      	ldr	r2, [pc, #584]	@ (701025c0 <HAL_RCCEx_PeriphCLKConfig+0xabc>)
70102378:	6be1      	ldr	r1, [r4, #60]	@ 0x3c
7010237a:	f8d2 30dc 	ldr.w	r3, [r2, #220]	@ 0xdc
7010237e:	6ba7      	ldr	r7, [r4, #56]	@ 0x38
70102380:	f023 5343 	bic.w	r3, r3, #817889280	@ 0x30c00000
70102384:	f423 137c 	bic.w	r3, r3, #4128768	@ 0x3f0000
70102388:	3901      	subs	r1, #1
7010238a:	433b      	orrs	r3, r7
7010238c:	ea43 4301 	orr.w	r3, r3, r1, lsl #16
70102390:	f8c2 30dc 	str.w	r3, [r2, #220]	@ 0xdc
70102394:	2340      	movs	r3, #64	@ 0x40
70102396:	f8c2 3a40 	str.w	r3, [r2, #2624]	@ 0xa40
7010239a:	f7ff fba1 	bl	70101ae0 <LL_RCC_SetClockSource>
7010239e:	00ad      	lsls	r5, r5, #2
701023a0:	d519      	bpl.n	701023d6 <HAL_RCCEx_PeriphCLKConfig+0x8d2>
701023a2:	f8d4 0128 	ldr.w	r0, [r4, #296]	@ 0x128
701023a6:	4b88      	ldr	r3, [pc, #544]	@ (701025c8 <HAL_RCCEx_PeriphCLKConfig+0xac4>)
701023a8:	4298      	cmp	r0, r3
701023aa:	f040 856a 	bne.w	70102e82 <HAL_RCCEx_PeriphCLKConfig+0x137e>
701023ae:	4a84      	ldr	r2, [pc, #528]	@ (701025c0 <HAL_RCCEx_PeriphCLKConfig+0xabc>)
701023b0:	6be1      	ldr	r1, [r4, #60]	@ 0x3c
701023b2:	f8d2 30dc 	ldr.w	r3, [r2, #220]	@ 0xdc
701023b6:	6ba5      	ldr	r5, [r4, #56]	@ 0x38
701023b8:	f023 5343 	bic.w	r3, r3, #817889280	@ 0x30c00000
701023bc:	f423 137c 	bic.w	r3, r3, #4128768	@ 0x3f0000
701023c0:	3901      	subs	r1, #1
701023c2:	432b      	orrs	r3, r5
701023c4:	ea43 4301 	orr.w	r3, r3, r1, lsl #16
701023c8:	f8c2 30dc 	str.w	r3, [r2, #220]	@ 0xdc
701023cc:	2340      	movs	r3, #64	@ 0x40
701023ce:	f8c2 3a40 	str.w	r3, [r2, #2624]	@ 0xa40
701023d2:	f7ff fb85 	bl	70101ae0 <LL_RCC_SetClockSource>
701023d6:	07f0      	lsls	r0, r6, #31
701023d8:	d51e      	bpl.n	70102418 <HAL_RCCEx_PeriphCLKConfig+0x914>
701023da:	f8d4 114c 	ldr.w	r1, [r4, #332]	@ 0x14c
701023de:	4a78      	ldr	r2, [pc, #480]	@ (701025c0 <HAL_RCCEx_PeriphCLKConfig+0xabc>)
701023e0:	2902      	cmp	r1, #2
701023e2:	f040 856c 	bne.w	70102ebe <HAL_RCCEx_PeriphCLKConfig+0x13ba>
701023e6:	f8d2 30dc 	ldr.w	r3, [r2, #220]	@ 0xdc
701023ea:	6be0      	ldr	r0, [r4, #60]	@ 0x3c
701023ec:	6ba5      	ldr	r5, [r4, #56]	@ 0x38
701023ee:	f023 5343 	bic.w	r3, r3, #817889280	@ 0x30c00000
701023f2:	f423 137c 	bic.w	r3, r3, #4128768	@ 0x3f0000
701023f6:	3801      	subs	r0, #1
701023f8:	432b      	orrs	r3, r5
701023fa:	ea43 4300 	orr.w	r3, r3, r0, lsl #16
701023fe:	f8c2 30dc 	str.w	r3, [r2, #220]	@ 0xdc
70102402:	2340      	movs	r3, #64	@ 0x40
70102404:	f8c2 3a40 	str.w	r3, [r2, #2624]	@ 0xa40
70102408:	4a6d      	ldr	r2, [pc, #436]	@ (701025c0 <HAL_RCCEx_PeriphCLKConfig+0xabc>)
7010240a:	f8d2 3164 	ldr.w	r3, [r2, #356]	@ 0x164
7010240e:	f023 0307 	bic.w	r3, r3, #7
70102412:	430b      	orrs	r3, r1
70102414:	f8c2 3164 	str.w	r3, [r2, #356]	@ 0x164
70102418:	07b1      	lsls	r1, r6, #30
7010241a:	d519      	bpl.n	70102450 <HAL_RCCEx_PeriphCLKConfig+0x94c>
7010241c:	f8d4 0134 	ldr.w	r0, [r4, #308]	@ 0x134
70102420:	4b6a      	ldr	r3, [pc, #424]	@ (701025cc <HAL_RCCEx_PeriphCLKConfig+0xac8>)
70102422:	4298      	cmp	r0, r3
70102424:	f040 8565 	bne.w	70102ef2 <HAL_RCCEx_PeriphCLKConfig+0x13ee>
70102428:	4a65      	ldr	r2, [pc, #404]	@ (701025c0 <HAL_RCCEx_PeriphCLKConfig+0xabc>)
7010242a:	6c61      	ldr	r1, [r4, #68]	@ 0x44
7010242c:	f8d2 30e0 	ldr.w	r3, [r2, #224]	@ 0xe0
70102430:	6c25      	ldr	r5, [r4, #64]	@ 0x40
70102432:	f023 5343 	bic.w	r3, r3, #817889280	@ 0x30c00000
70102436:	f423 137c 	bic.w	r3, r3, #4128768	@ 0x3f0000
7010243a:	3901      	subs	r1, #1
7010243c:	432b      	orrs	r3, r5
7010243e:	ea43 4301 	orr.w	r3, r3, r1, lsl #16
70102442:	f8c2 30e0 	str.w	r3, [r2, #224]	@ 0xe0
70102446:	2380      	movs	r3, #128	@ 0x80
70102448:	f8c2 3a40 	str.w	r3, [r2, #2624]	@ 0xa40
7010244c:	f7ff fb48 	bl	70101ae0 <LL_RCC_SetClockSource>
70102450:	0772      	lsls	r2, r6, #29
70102452:	d519      	bpl.n	70102488 <HAL_RCCEx_PeriphCLKConfig+0x984>
70102454:	f8d4 0138 	ldr.w	r0, [r4, #312]	@ 0x138
70102458:	4b5d      	ldr	r3, [pc, #372]	@ (701025d0 <HAL_RCCEx_PeriphCLKConfig+0xacc>)
7010245a:	4298      	cmp	r0, r3
7010245c:	f040 8568 	bne.w	70102f30 <HAL_RCCEx_PeriphCLKConfig+0x142c>
70102460:	4a57      	ldr	r2, [pc, #348]	@ (701025c0 <HAL_RCCEx_PeriphCLKConfig+0xabc>)
70102462:	6c61      	ldr	r1, [r4, #68]	@ 0x44
70102464:	f8d2 30e0 	ldr.w	r3, [r2, #224]	@ 0xe0
70102468:	6c25      	ldr	r5, [r4, #64]	@ 0x40
7010246a:	f023 5343 	bic.w	r3, r3, #817889280	@ 0x30c00000
7010246e:	f423 137c 	bic.w	r3, r3, #4128768	@ 0x3f0000
70102472:	3901      	subs	r1, #1
70102474:	432b      	orrs	r3, r5
70102476:	ea43 4301 	orr.w	r3, r3, r1, lsl #16
7010247a:	f8c2 30e0 	str.w	r3, [r2, #224]	@ 0xe0
7010247e:	2380      	movs	r3, #128	@ 0x80
70102480:	f8c2 3a40 	str.w	r3, [r2, #2624]	@ 0xa40
70102484:	f7ff fb2c 	bl	70101ae0 <LL_RCC_SetClockSource>
70102488:	0733      	lsls	r3, r6, #28
7010248a:	d519      	bpl.n	701024c0 <HAL_RCCEx_PeriphCLKConfig+0x9bc>
7010248c:	f8d4 013c 	ldr.w	r0, [r4, #316]	@ 0x13c
70102490:	4b50      	ldr	r3, [pc, #320]	@ (701025d4 <HAL_RCCEx_PeriphCLKConfig+0xad0>)
70102492:	4298      	cmp	r0, r3
70102494:	f040 856b 	bne.w	70102f6e <HAL_RCCEx_PeriphCLKConfig+0x146a>
70102498:	4a49      	ldr	r2, [pc, #292]	@ (701025c0 <HAL_RCCEx_PeriphCLKConfig+0xabc>)
7010249a:	6c61      	ldr	r1, [r4, #68]	@ 0x44
7010249c:	f8d2 30e0 	ldr.w	r3, [r2, #224]	@ 0xe0
701024a0:	6c25      	ldr	r5, [r4, #64]	@ 0x40
701024a2:	f023 5343 	bic.w	r3, r3, #817889280	@ 0x30c00000
701024a6:	f423 137c 	bic.w	r3, r3, #4128768	@ 0x3f0000
701024aa:	3901      	subs	r1, #1
701024ac:	432b      	orrs	r3, r5
701024ae:	ea43 4301 	orr.w	r3, r3, r1, lsl #16
701024b2:	f8c2 30e0 	str.w	r3, [r2, #224]	@ 0xe0
701024b6:	2380      	movs	r3, #128	@ 0x80
701024b8:	f8c2 3a40 	str.w	r3, [r2, #2624]	@ 0xa40
701024bc:	f7ff fb10 	bl	70101ae0 <LL_RCC_SetClockSource>
701024c0:	06f7      	lsls	r7, r6, #27
701024c2:	d51a      	bpl.n	701024fa <HAL_RCCEx_PeriphCLKConfig+0x9f6>
701024c4:	f8d4 0140 	ldr.w	r0, [r4, #320]	@ 0x140
701024c8:	4b43      	ldr	r3, [pc, #268]	@ (701025d8 <HAL_RCCEx_PeriphCLKConfig+0xad4>)
701024ca:	4298      	cmp	r0, r3
701024cc:	f040 8596 	bne.w	70102ffc <HAL_RCCEx_PeriphCLKConfig+0x14f8>
701024d0:	4a3b      	ldr	r2, [pc, #236]	@ (701025c0 <HAL_RCCEx_PeriphCLKConfig+0xabc>)
701024d2:	6ce1      	ldr	r1, [r4, #76]	@ 0x4c
701024d4:	f8d2 30e4 	ldr.w	r3, [r2, #228]	@ 0xe4
701024d8:	6ca5      	ldr	r5, [r4, #72]	@ 0x48
701024da:	f023 5343 	bic.w	r3, r3, #817889280	@ 0x30c00000
701024de:	f423 137c 	bic.w	r3, r3, #4128768	@ 0x3f0000
701024e2:	3901      	subs	r1, #1
701024e4:	432b      	orrs	r3, r5
701024e6:	ea43 4301 	orr.w	r3, r3, r1, lsl #16
701024ea:	f8c2 30e4 	str.w	r3, [r2, #228]	@ 0xe4
701024ee:	f44f 7380 	mov.w	r3, #256	@ 0x100
701024f2:	f8c2 3a40 	str.w	r3, [r2, #2624]	@ 0xa40
701024f6:	f7ff faf3 	bl	70101ae0 <LL_RCC_SetClockSource>
701024fa:	06b5      	lsls	r5, r6, #26
701024fc:	d51a      	bpl.n	70102534 <HAL_RCCEx_PeriphCLKConfig+0xa30>
701024fe:	f8d4 0144 	ldr.w	r0, [r4, #324]	@ 0x144
70102502:	4b36      	ldr	r3, [pc, #216]	@ (701025dc <HAL_RCCEx_PeriphCLKConfig+0xad8>)
70102504:	4298      	cmp	r0, r3
70102506:	f040 8598 	bne.w	7010303a <HAL_RCCEx_PeriphCLKConfig+0x1536>
7010250a:	4a2d      	ldr	r2, [pc, #180]	@ (701025c0 <HAL_RCCEx_PeriphCLKConfig+0xabc>)
7010250c:	6ce1      	ldr	r1, [r4, #76]	@ 0x4c
7010250e:	f8d2 30e4 	ldr.w	r3, [r2, #228]	@ 0xe4
70102512:	6ca5      	ldr	r5, [r4, #72]	@ 0x48
70102514:	f023 5343 	bic.w	r3, r3, #817889280	@ 0x30c00000
70102518:	f423 137c 	bic.w	r3, r3, #4128768	@ 0x3f0000
7010251c:	3901      	subs	r1, #1
7010251e:	432b      	orrs	r3, r5
70102520:	ea43 4301 	orr.w	r3, r3, r1, lsl #16
70102524:	f8c2 30e4 	str.w	r3, [r2, #228]	@ 0xe4
70102528:	f44f 7380 	mov.w	r3, #256	@ 0x100
7010252c:	f8c2 3a40 	str.w	r3, [r2, #2624]	@ 0xa40
70102530:	f7ff fad6 	bl	70101ae0 <LL_RCC_SetClockSource>
70102534:	0670      	lsls	r0, r6, #25
70102536:	d519      	bpl.n	7010256c <HAL_RCCEx_PeriphCLKConfig+0xa68>
70102538:	f8d4 0148 	ldr.w	r0, [r4, #328]	@ 0x148
7010253c:	4b28      	ldr	r3, [pc, #160]	@ (701025e0 <HAL_RCCEx_PeriphCLKConfig+0xadc>)
7010253e:	4298      	cmp	r0, r3
70102540:	f040 859a 	bne.w	70103078 <HAL_RCCEx_PeriphCLKConfig+0x1574>
70102544:	4a1e      	ldr	r2, [pc, #120]	@ (701025c0 <HAL_RCCEx_PeriphCLKConfig+0xabc>)
70102546:	6c61      	ldr	r1, [r4, #68]	@ 0x44
70102548:	f8d2 30e0 	ldr.w	r3, [r2, #224]	@ 0xe0
7010254c:	6c25      	ldr	r5, [r4, #64]	@ 0x40
7010254e:	f023 5343 	bic.w	r3, r3, #817889280	@ 0x30c00000
70102552:	f423 137c 	bic.w	r3, r3, #4128768	@ 0x3f0000
70102556:	3901      	subs	r1, #1
70102558:	432b      	orrs	r3, r5
7010255a:	ea43 4301 	orr.w	r3, r3, r1, lsl #16
7010255e:	f8c2 30e0 	str.w	r3, [r2, #224]	@ 0xe0
70102562:	2380      	movs	r3, #128	@ 0x80
70102564:	f8c2 3a40 	str.w	r3, [r2, #2624]	@ 0xa40
70102568:	f7ff faba 	bl	70101ae0 <LL_RCC_SetClockSource>
7010256c:	05f1      	lsls	r1, r6, #23
7010256e:	d51a      	bpl.n	701025a6 <HAL_RCCEx_PeriphCLKConfig+0xaa2>
70102570:	f8d4 0150 	ldr.w	r0, [r4, #336]	@ 0x150
70102574:	4b1b      	ldr	r3, [pc, #108]	@ (701025e4 <HAL_RCCEx_PeriphCLKConfig+0xae0>)
70102576:	4298      	cmp	r0, r3
70102578:	f040 859d 	bne.w	701030b6 <HAL_RCCEx_PeriphCLKConfig+0x15b2>
7010257c:	4a10      	ldr	r2, [pc, #64]	@ (701025c0 <HAL_RCCEx_PeriphCLKConfig+0xabc>)
7010257e:	6ce1      	ldr	r1, [r4, #76]	@ 0x4c
70102580:	f8d2 30e4 	ldr.w	r3, [r2, #228]	@ 0xe4
70102584:	6ca5      	ldr	r5, [r4, #72]	@ 0x48
70102586:	f023 5343 	bic.w	r3, r3, #817889280	@ 0x30c00000
7010258a:	f423 137c 	bic.w	r3, r3, #4128768	@ 0x3f0000
7010258e:	3901      	subs	r1, #1
70102590:	432b      	orrs	r3, r5
70102592:	ea43 4301 	orr.w	r3, r3, r1, lsl #16
70102596:	f8c2 30e4 	str.w	r3, [r2, #228]	@ 0xe4
7010259a:	f44f 7380 	mov.w	r3, #256	@ 0x100
7010259e:	f8c2 3a40 	str.w	r3, [r2, #2624]	@ 0xa40
701025a2:	f7ff fa9d 	bl	70101ae0 <LL_RCC_SetClockSource>
701025a6:	05b2      	lsls	r2, r6, #22
701025a8:	d531      	bpl.n	7010260e <HAL_RCCEx_PeriphCLKConfig+0xb0a>
701025aa:	f8d4 0154 	ldr.w	r0, [r4, #340]	@ 0x154
701025ae:	4b0e      	ldr	r3, [pc, #56]	@ (701025e8 <HAL_RCCEx_PeriphCLKConfig+0xae4>)
701025b0:	4298      	cmp	r0, r3
701025b2:	f040 859f 	bne.w	701030f4 <HAL_RCCEx_PeriphCLKConfig+0x15f0>
701025b6:	4a02      	ldr	r2, [pc, #8]	@ (701025c0 <HAL_RCCEx_PeriphCLKConfig+0xabc>)
701025b8:	6ce1      	ldr	r1, [r4, #76]	@ 0x4c
701025ba:	f8d2 30e4 	ldr.w	r3, [r2, #228]	@ 0xe4
701025be:	e015      	b.n	701025ec <HAL_RCCEx_PeriphCLKConfig+0xae8>
701025c0:	56028000 	.word	0x56028000
701025c4:	07021418 	.word	0x07021418
701025c8:	07021818 	.word	0x07021818
701025cc:	07020420 	.word	0x07020420
701025d0:	07020820 	.word	0x07020820
701025d4:	07020c20 	.word	0x07020c20
701025d8:	07021020 	.word	0x07021020
701025dc:	07021420 	.word	0x07021420
701025e0:	07021820 	.word	0x07021820
701025e4:	07020030 	.word	0x07020030
701025e8:	07020430 	.word	0x07020430
701025ec:	6ca5      	ldr	r5, [r4, #72]	@ 0x48
701025ee:	f023 5343 	bic.w	r3, r3, #817889280	@ 0x30c00000
701025f2:	f423 137c 	bic.w	r3, r3, #4128768	@ 0x3f0000
701025f6:	3901      	subs	r1, #1
701025f8:	432b      	orrs	r3, r5
701025fa:	ea43 4301 	orr.w	r3, r3, r1, lsl #16
701025fe:	f8c2 30e4 	str.w	r3, [r2, #228]	@ 0xe4
70102602:	f44f 7380 	mov.w	r3, #256	@ 0x100
70102606:	f8c2 3a40 	str.w	r3, [r2, #2624]	@ 0xa40
7010260a:	f7ff fa69 	bl	70101ae0 <LL_RCC_SetClockSource>
7010260e:	0573      	lsls	r3, r6, #21
70102610:	d51a      	bpl.n	70102648 <HAL_RCCEx_PeriphCLKConfig+0xb44>
70102612:	f8d4 0158 	ldr.w	r0, [r4, #344]	@ 0x158
70102616:	4bcb      	ldr	r3, [pc, #812]	@ (70102944 <HAL_RCCEx_PeriphCLKConfig+0xe40>)
70102618:	4298      	cmp	r0, r3
7010261a:	f040 858a 	bne.w	70103132 <HAL_RCCEx_PeriphCLKConfig+0x162e>
7010261e:	4aca      	ldr	r2, [pc, #808]	@ (70102948 <HAL_RCCEx_PeriphCLKConfig+0xe44>)
70102620:	6ce1      	ldr	r1, [r4, #76]	@ 0x4c
70102622:	f8d2 30e4 	ldr.w	r3, [r2, #228]	@ 0xe4
70102626:	6ca5      	ldr	r5, [r4, #72]	@ 0x48
70102628:	f023 5343 	bic.w	r3, r3, #817889280	@ 0x30c00000
7010262c:	f423 137c 	bic.w	r3, r3, #4128768	@ 0x3f0000
70102630:	3901      	subs	r1, #1
70102632:	432b      	orrs	r3, r5
70102634:	ea43 4301 	orr.w	r3, r3, r1, lsl #16
70102638:	f8c2 30e4 	str.w	r3, [r2, #228]	@ 0xe4
7010263c:	f44f 7380 	mov.w	r3, #256	@ 0x100
70102640:	f8c2 3a40 	str.w	r3, [r2, #2624]	@ 0xa40
70102644:	f7ff fa4c 	bl	70101ae0 <LL_RCC_SetClockSource>
70102648:	0537      	lsls	r7, r6, #20
7010264a:	d51a      	bpl.n	70102682 <HAL_RCCEx_PeriphCLKConfig+0xb7e>
7010264c:	f8d4 015c 	ldr.w	r0, [r4, #348]	@ 0x15c
70102650:	4bbe      	ldr	r3, [pc, #760]	@ (7010294c <HAL_RCCEx_PeriphCLKConfig+0xe48>)
70102652:	4298      	cmp	r0, r3
70102654:	f040 858c 	bne.w	70103170 <HAL_RCCEx_PeriphCLKConfig+0x166c>
70102658:	4abb      	ldr	r2, [pc, #748]	@ (70102948 <HAL_RCCEx_PeriphCLKConfig+0xe44>)
7010265a:	6ce1      	ldr	r1, [r4, #76]	@ 0x4c
7010265c:	f8d2 30e4 	ldr.w	r3, [r2, #228]	@ 0xe4
70102660:	6ca5      	ldr	r5, [r4, #72]	@ 0x48
70102662:	f023 5343 	bic.w	r3, r3, #817889280	@ 0x30c00000
70102666:	f423 137c 	bic.w	r3, r3, #4128768	@ 0x3f0000
7010266a:	3901      	subs	r1, #1
7010266c:	432b      	orrs	r3, r5
7010266e:	ea43 4301 	orr.w	r3, r3, r1, lsl #16
70102672:	f8c2 30e4 	str.w	r3, [r2, #228]	@ 0xe4
70102676:	f44f 7380 	mov.w	r3, #256	@ 0x100
7010267a:	f8c2 3a40 	str.w	r3, [r2, #2624]	@ 0xa40
7010267e:	f7ff fa2f 	bl	70101ae0 <LL_RCC_SetClockSource>
70102682:	04f5      	lsls	r5, r6, #19
70102684:	d51a      	bpl.n	701026bc <HAL_RCCEx_PeriphCLKConfig+0xbb8>
70102686:	f8d4 0160 	ldr.w	r0, [r4, #352]	@ 0x160
7010268a:	4bb1      	ldr	r3, [pc, #708]	@ (70102950 <HAL_RCCEx_PeriphCLKConfig+0xe4c>)
7010268c:	4298      	cmp	r0, r3
7010268e:	f040 858e 	bne.w	701031ae <HAL_RCCEx_PeriphCLKConfig+0x16aa>
70102692:	4aad      	ldr	r2, [pc, #692]	@ (70102948 <HAL_RCCEx_PeriphCLKConfig+0xe44>)
70102694:	6ce1      	ldr	r1, [r4, #76]	@ 0x4c
70102696:	f8d2 30e4 	ldr.w	r3, [r2, #228]	@ 0xe4
7010269a:	6ca5      	ldr	r5, [r4, #72]	@ 0x48
7010269c:	f023 5343 	bic.w	r3, r3, #817889280	@ 0x30c00000
701026a0:	f423 137c 	bic.w	r3, r3, #4128768	@ 0x3f0000
701026a4:	3901      	subs	r1, #1
701026a6:	432b      	orrs	r3, r5
701026a8:	ea43 4301 	orr.w	r3, r3, r1, lsl #16
701026ac:	f8c2 30e4 	str.w	r3, [r2, #228]	@ 0xe4
701026b0:	f44f 7380 	mov.w	r3, #256	@ 0x100
701026b4:	f8c2 3a40 	str.w	r3, [r2, #2624]	@ 0xa40
701026b8:	f7ff fa12 	bl	70101ae0 <LL_RCC_SetClockSource>
701026bc:	04b0      	lsls	r0, r6, #18
701026be:	d51a      	bpl.n	701026f6 <HAL_RCCEx_PeriphCLKConfig+0xbf2>
701026c0:	f8d4 0164 	ldr.w	r0, [r4, #356]	@ 0x164
701026c4:	4ba3      	ldr	r3, [pc, #652]	@ (70102954 <HAL_RCCEx_PeriphCLKConfig+0xe50>)
701026c6:	4298      	cmp	r0, r3
701026c8:	f040 8590 	bne.w	701031ec <HAL_RCCEx_PeriphCLKConfig+0x16e8>
701026cc:	4a9e      	ldr	r2, [pc, #632]	@ (70102948 <HAL_RCCEx_PeriphCLKConfig+0xe44>)
701026ce:	6ce1      	ldr	r1, [r4, #76]	@ 0x4c
701026d0:	f8d2 30e4 	ldr.w	r3, [r2, #228]	@ 0xe4
701026d4:	6ca5      	ldr	r5, [r4, #72]	@ 0x48
701026d6:	f023 5343 	bic.w	r3, r3, #817889280	@ 0x30c00000
701026da:	f423 137c 	bic.w	r3, r3, #4128768	@ 0x3f0000
701026de:	3901      	subs	r1, #1
701026e0:	432b      	orrs	r3, r5
701026e2:	ea43 4301 	orr.w	r3, r3, r1, lsl #16
701026e6:	f8c2 30e4 	str.w	r3, [r2, #228]	@ 0xe4
701026ea:	f44f 7380 	mov.w	r3, #256	@ 0x100
701026ee:	f8c2 3a40 	str.w	r3, [r2, #2624]	@ 0xa40
701026f2:	f7ff f9f5 	bl	70101ae0 <LL_RCC_SetClockSource>
701026f6:	0471      	lsls	r1, r6, #17
701026f8:	d51a      	bpl.n	70102730 <HAL_RCCEx_PeriphCLKConfig+0xc2c>
701026fa:	f8d4 0168 	ldr.w	r0, [r4, #360]	@ 0x168
701026fe:	4b96      	ldr	r3, [pc, #600]	@ (70102958 <HAL_RCCEx_PeriphCLKConfig+0xe54>)
70102700:	4298      	cmp	r0, r3
70102702:	f040 8592 	bne.w	7010322a <HAL_RCCEx_PeriphCLKConfig+0x1726>
70102706:	4a90      	ldr	r2, [pc, #576]	@ (70102948 <HAL_RCCEx_PeriphCLKConfig+0xe44>)
70102708:	6ce1      	ldr	r1, [r4, #76]	@ 0x4c
7010270a:	f8d2 30e4 	ldr.w	r3, [r2, #228]	@ 0xe4
7010270e:	6ca5      	ldr	r5, [r4, #72]	@ 0x48
70102710:	f023 5343 	bic.w	r3, r3, #817889280	@ 0x30c00000
70102714:	f423 137c 	bic.w	r3, r3, #4128768	@ 0x3f0000
70102718:	3901      	subs	r1, #1
7010271a:	432b      	orrs	r3, r5
7010271c:	ea43 4301 	orr.w	r3, r3, r1, lsl #16
70102720:	f8c2 30e4 	str.w	r3, [r2, #228]	@ 0xe4
70102724:	f44f 7380 	mov.w	r3, #256	@ 0x100
70102728:	f8c2 3a40 	str.w	r3, [r2, #2624]	@ 0xa40
7010272c:	f7ff f9d8 	bl	70101ae0 <LL_RCC_SetClockSource>
70102730:	0432      	lsls	r2, r6, #16
70102732:	d51a      	bpl.n	7010276a <HAL_RCCEx_PeriphCLKConfig+0xc66>
70102734:	f8d4 016c 	ldr.w	r0, [r4, #364]	@ 0x16c
70102738:	4b88      	ldr	r3, [pc, #544]	@ (7010295c <HAL_RCCEx_PeriphCLKConfig+0xe58>)
7010273a:	4298      	cmp	r0, r3
7010273c:	f040 8594 	bne.w	70103268 <HAL_RCCEx_PeriphCLKConfig+0x1764>
70102740:	4a81      	ldr	r2, [pc, #516]	@ (70102948 <HAL_RCCEx_PeriphCLKConfig+0xe44>)
70102742:	6ce1      	ldr	r1, [r4, #76]	@ 0x4c
70102744:	f8d2 30e4 	ldr.w	r3, [r2, #228]	@ 0xe4
70102748:	6ca5      	ldr	r5, [r4, #72]	@ 0x48
7010274a:	f023 5343 	bic.w	r3, r3, #817889280	@ 0x30c00000
7010274e:	f423 137c 	bic.w	r3, r3, #4128768	@ 0x3f0000
70102752:	3901      	subs	r1, #1
70102754:	432b      	orrs	r3, r5
70102756:	ea43 4301 	orr.w	r3, r3, r1, lsl #16
7010275a:	f8c2 30e4 	str.w	r3, [r2, #228]	@ 0xe4
7010275e:	f44f 7380 	mov.w	r3, #256	@ 0x100
70102762:	f8c2 3a40 	str.w	r3, [r2, #2624]	@ 0xa40
70102766:	f7ff f9bb 	bl	70101ae0 <LL_RCC_SetClockSource>
7010276a:	03f3      	lsls	r3, r6, #15
7010276c:	d51a      	bpl.n	701027a4 <HAL_RCCEx_PeriphCLKConfig+0xca0>
7010276e:	f8d4 0170 	ldr.w	r0, [r4, #368]	@ 0x170
70102772:	4b7b      	ldr	r3, [pc, #492]	@ (70102960 <HAL_RCCEx_PeriphCLKConfig+0xe5c>)
70102774:	4298      	cmp	r0, r3
70102776:	f040 8596 	bne.w	701032a6 <HAL_RCCEx_PeriphCLKConfig+0x17a2>
7010277a:	4a73      	ldr	r2, [pc, #460]	@ (70102948 <HAL_RCCEx_PeriphCLKConfig+0xe44>)
7010277c:	6ce1      	ldr	r1, [r4, #76]	@ 0x4c
7010277e:	f8d2 30e4 	ldr.w	r3, [r2, #228]	@ 0xe4
70102782:	6ca5      	ldr	r5, [r4, #72]	@ 0x48
70102784:	f023 5343 	bic.w	r3, r3, #817889280	@ 0x30c00000
70102788:	f423 137c 	bic.w	r3, r3, #4128768	@ 0x3f0000
7010278c:	3901      	subs	r1, #1
7010278e:	432b      	orrs	r3, r5
70102790:	ea43 4301 	orr.w	r3, r3, r1, lsl #16
70102794:	f8c2 30e4 	str.w	r3, [r2, #228]	@ 0xe4
70102798:	f44f 7380 	mov.w	r3, #256	@ 0x100
7010279c:	f8c2 3a40 	str.w	r3, [r2, #2624]	@ 0xa40
701027a0:	f7ff f99e 	bl	70101ae0 <LL_RCC_SetClockSource>
701027a4:	03b7      	lsls	r7, r6, #14
701027a6:	d51a      	bpl.n	701027de <HAL_RCCEx_PeriphCLKConfig+0xcda>
701027a8:	f8d4 0174 	ldr.w	r0, [r4, #372]	@ 0x174
701027ac:	4b6d      	ldr	r3, [pc, #436]	@ (70102964 <HAL_RCCEx_PeriphCLKConfig+0xe60>)
701027ae:	4298      	cmp	r0, r3
701027b0:	f040 85ca 	bne.w	70103348 <HAL_RCCEx_PeriphCLKConfig+0x1844>
701027b4:	4a64      	ldr	r2, [pc, #400]	@ (70102948 <HAL_RCCEx_PeriphCLKConfig+0xe44>)
701027b6:	6ce1      	ldr	r1, [r4, #76]	@ 0x4c
701027b8:	f8d2 30e4 	ldr.w	r3, [r2, #228]	@ 0xe4
701027bc:	6ca5      	ldr	r5, [r4, #72]	@ 0x48
701027be:	f023 5343 	bic.w	r3, r3, #817889280	@ 0x30c00000
701027c2:	f423 137c 	bic.w	r3, r3, #4128768	@ 0x3f0000
701027c6:	3901      	subs	r1, #1
701027c8:	432b      	orrs	r3, r5
701027ca:	ea43 4301 	orr.w	r3, r3, r1, lsl #16
701027ce:	f8c2 30e4 	str.w	r3, [r2, #228]	@ 0xe4
701027d2:	f44f 7380 	mov.w	r3, #256	@ 0x100
701027d6:	f8c2 3a40 	str.w	r3, [r2, #2624]	@ 0xa40
701027da:	f7ff f981 	bl	70101ae0 <LL_RCC_SetClockSource>
701027de:	0375      	lsls	r5, r6, #13
701027e0:	d50c      	bpl.n	701027fc <HAL_RCCEx_PeriphCLKConfig+0xcf8>
701027e2:	f8d4 0178 	ldr.w	r0, [r4, #376]	@ 0x178
701027e6:	f020 4000 	bic.w	r0, r0, #2147483648	@ 0x80000000
701027ea:	f7ff f979 	bl	70101ae0 <LL_RCC_SetClockSource>
701027ee:	f8d4 3178 	ldr.w	r3, [r4, #376]	@ 0x178
701027f2:	2b00      	cmp	r3, #0
701027f4:	f280 85c7 	bge.w	70103386 <HAL_RCCEx_PeriphCLKConfig+0x1882>
701027f8:	f7ff f962 	bl	70101ac0 <LL_RCC_HSE_SelectHSEDiv2AsDiv2Clock>
701027fc:	02f0      	lsls	r0, r6, #11
701027fe:	d50c      	bpl.n	7010281a <HAL_RCCEx_PeriphCLKConfig+0xd16>
70102800:	f8d4 0180 	ldr.w	r0, [r4, #384]	@ 0x180
70102804:	f020 4000 	bic.w	r0, r0, #2147483648	@ 0x80000000
70102808:	f7ff f96a 	bl	70101ae0 <LL_RCC_SetClockSource>
7010280c:	f8d4 3180 	ldr.w	r3, [r4, #384]	@ 0x180
70102810:	2b00      	cmp	r3, #0
70102812:	f280 85bc 	bge.w	7010338e <HAL_RCCEx_PeriphCLKConfig+0x188a>
70102816:	f7ff f953 	bl	70101ac0 <LL_RCC_HSE_SelectHSEDiv2AsDiv2Clock>
7010281a:	0331      	lsls	r1, r6, #12
7010281c:	d523      	bpl.n	70102866 <HAL_RCCEx_PeriphCLKConfig+0xd62>
7010281e:	f8d4 017c 	ldr.w	r0, [r4, #380]	@ 0x17c
70102822:	4b51      	ldr	r3, [pc, #324]	@ (70102968 <HAL_RCCEx_PeriphCLKConfig+0xe64>)
70102824:	4298      	cmp	r0, r3
70102826:	f040 85b6 	bne.w	70103396 <HAL_RCCEx_PeriphCLKConfig+0x1892>
7010282a:	4a47      	ldr	r2, [pc, #284]	@ (70102948 <HAL_RCCEx_PeriphCLKConfig+0xe44>)
7010282c:	6fe1      	ldr	r1, [r4, #124]	@ 0x7c
7010282e:	f8d2 30fc 	ldr.w	r3, [r2, #252]	@ 0xfc
70102832:	6fa5      	ldr	r5, [r4, #120]	@ 0x78
70102834:	f023 5343 	bic.w	r3, r3, #817889280	@ 0x30c00000
70102838:	f423 137c 	bic.w	r3, r3, #4128768	@ 0x3f0000
7010283c:	3901      	subs	r1, #1
7010283e:	432b      	orrs	r3, r5
70102840:	ea43 4301 	orr.w	r3, r3, r1, lsl #16
70102844:	f8c2 30fc 	str.w	r3, [r2, #252]	@ 0xfc
70102848:	f44f 4380 	mov.w	r3, #16384	@ 0x4000
7010284c:	f8c2 3a40 	str.w	r3, [r2, #2624]	@ 0xa40
70102850:	f020 4000 	bic.w	r0, r0, #2147483648	@ 0x80000000
70102854:	f7ff f944 	bl	70101ae0 <LL_RCC_SetClockSource>
70102858:	f8d4 317c 	ldr.w	r3, [r4, #380]	@ 0x17c
7010285c:	2b00      	cmp	r3, #0
7010285e:	f280 85a3 	bge.w	701033a8 <HAL_RCCEx_PeriphCLKConfig+0x18a4>
70102862:	f7ff f92d 	bl	70101ac0 <LL_RCC_HSE_SelectHSEDiv2AsDiv2Clock>
70102866:	02b2      	lsls	r2, r6, #10
70102868:	d523      	bpl.n	701028b2 <HAL_RCCEx_PeriphCLKConfig+0xdae>
7010286a:	f8d4 0184 	ldr.w	r0, [r4, #388]	@ 0x184
7010286e:	4b3f      	ldr	r3, [pc, #252]	@ (7010296c <HAL_RCCEx_PeriphCLKConfig+0xe68>)
70102870:	4298      	cmp	r0, r3
70102872:	f040 859d 	bne.w	701033b0 <HAL_RCCEx_PeriphCLKConfig+0x18ac>
70102876:	4a34      	ldr	r2, [pc, #208]	@ (70102948 <HAL_RCCEx_PeriphCLKConfig+0xe44>)
70102878:	6fe1      	ldr	r1, [r4, #124]	@ 0x7c
7010287a:	f8d2 30fc 	ldr.w	r3, [r2, #252]	@ 0xfc
7010287e:	6fa5      	ldr	r5, [r4, #120]	@ 0x78
70102880:	f023 5343 	bic.w	r3, r3, #817889280	@ 0x30c00000
70102884:	f423 137c 	bic.w	r3, r3, #4128768	@ 0x3f0000
70102888:	3901      	subs	r1, #1
7010288a:	432b      	orrs	r3, r5
7010288c:	ea43 4301 	orr.w	r3, r3, r1, lsl #16
70102890:	f8c2 30fc 	str.w	r3, [r2, #252]	@ 0xfc
70102894:	f44f 4380 	mov.w	r3, #16384	@ 0x4000
70102898:	f8c2 3a40 	str.w	r3, [r2, #2624]	@ 0xa40
7010289c:	f020 4000 	bic.w	r0, r0, #2147483648	@ 0x80000000
701028a0:	f7ff f91e 	bl	70101ae0 <LL_RCC_SetClockSource>
701028a4:	f8d4 3184 	ldr.w	r3, [r4, #388]	@ 0x184
701028a8:	2b00      	cmp	r3, #0
701028aa:	f280 858a 	bge.w	701033c2 <HAL_RCCEx_PeriphCLKConfig+0x18be>
701028ae:	f7ff f907 	bl	70101ac0 <LL_RCC_HSE_SelectHSEDiv2AsDiv2Clock>
701028b2:	0633      	lsls	r3, r6, #24
701028b4:	d508      	bpl.n	701028c8 <HAL_RCCEx_PeriphCLKConfig+0xdc4>
701028b6:	4a24      	ldr	r2, [pc, #144]	@ (70102948 <HAL_RCCEx_PeriphCLKConfig+0xe44>)
701028b8:	f8d4 118c 	ldr.w	r1, [r4, #396]	@ 0x18c
701028bc:	6a53      	ldr	r3, [r2, #36]	@ 0x24
701028be:	f023 7340 	bic.w	r3, r3, #50331648	@ 0x3000000
701028c2:	ea43 6301 	orr.w	r3, r3, r1, lsl #24
701028c6:	6253      	str	r3, [r2, #36]	@ 0x24
701028c8:	f1b8 0000 	subs.w	r0, r8, #0
701028cc:	bf18      	it	ne
701028ce:	2001      	movne	r0, #1
701028d0:	e8bd 81f0 	ldmia.w	sp!, {r4, r5, r6, r7, r8, pc}
701028d4:	f8d3 20e8 	ldr.w	r2, [r3, #232]	@ 0xe8
701028d8:	6d60      	ldr	r0, [r4, #84]	@ 0x54
701028da:	6d27      	ldr	r7, [r4, #80]	@ 0x50
701028dc:	f022 5243 	bic.w	r2, r2, #817889280	@ 0x30c00000
701028e0:	f422 127c 	bic.w	r2, r2, #4128768	@ 0x3f0000
701028e4:	3801      	subs	r0, #1
701028e6:	433a      	orrs	r2, r7
701028e8:	ea42 4200 	orr.w	r2, r2, r0, lsl #16
701028ec:	f8c3 20e8 	str.w	r2, [r3, #232]	@ 0xe8
701028f0:	f44f 7200 	mov.w	r2, #512	@ 0x200
701028f4:	f7ff b975 	b.w	70101be2 <HAL_RCCEx_PeriphCLKConfig+0xde>
701028f8:	f8d3 20fc 	ldr.w	r2, [r3, #252]	@ 0xfc
701028fc:	6fe0      	ldr	r0, [r4, #124]	@ 0x7c
701028fe:	6fa7      	ldr	r7, [r4, #120]	@ 0x78
70102900:	f022 5243 	bic.w	r2, r2, #817889280	@ 0x30c00000
70102904:	f422 127c 	bic.w	r2, r2, #4128768	@ 0x3f0000
70102908:	3801      	subs	r0, #1
7010290a:	433a      	orrs	r2, r7
7010290c:	ea42 4200 	orr.w	r2, r2, r0, lsl #16
70102910:	f8c3 20fc 	str.w	r2, [r3, #252]	@ 0xfc
70102914:	f44f 4280 	mov.w	r2, #16384	@ 0x4000
70102918:	f7ff b963 	b.w	70101be2 <HAL_RCCEx_PeriphCLKConfig+0xde>
7010291c:	f8d3 210c 	ldr.w	r2, [r3, #268]	@ 0x10c
70102920:	f8d4 009c 	ldr.w	r0, [r4, #156]	@ 0x9c
70102924:	f8d4 7098 	ldr.w	r7, [r4, #152]	@ 0x98
70102928:	f022 5243 	bic.w	r2, r2, #817889280	@ 0x30c00000
7010292c:	f422 127c 	bic.w	r2, r2, #4128768	@ 0x3f0000
70102930:	3801      	subs	r0, #1
70102932:	433a      	orrs	r2, r7
70102934:	ea42 4200 	orr.w	r2, r2, r0, lsl #16
70102938:	f8c3 210c 	str.w	r2, [r3, #268]	@ 0x10c
7010293c:	f44f 2280 	mov.w	r2, #262144	@ 0x40000
70102940:	f7ff b94f 	b.w	70101be2 <HAL_RCCEx_PeriphCLKConfig+0xde>
70102944:	07020830 	.word	0x07020830
70102948:	56028000 	.word	0x56028000
7010294c:	07020c30 	.word	0x07020c30
70102950:	07021030 	.word	0x07021030
70102954:	07021430 	.word	0x07021430
70102958:	07021830 	.word	0x07021830
7010295c:	07021c30 	.word	0x07021c30
70102960:	07020034 	.word	0x07020034
70102964:	07020434 	.word	0x07020434
70102968:	03020c14 	.word	0x03020c14
7010296c:	03021414 	.word	0x03021414
70102970:	f8d3 2110 	ldr.w	r2, [r3, #272]	@ 0x110
70102974:	f8d4 00a4 	ldr.w	r0, [r4, #164]	@ 0xa4
70102978:	f8d4 70a0 	ldr.w	r7, [r4, #160]	@ 0xa0
7010297c:	f022 5243 	bic.w	r2, r2, #817889280	@ 0x30c00000
70102980:	f422 127c 	bic.w	r2, r2, #4128768	@ 0x3f0000
70102984:	3801      	subs	r0, #1
70102986:	433a      	orrs	r2, r7
70102988:	ea42 4200 	orr.w	r2, r2, r0, lsl #16
7010298c:	f8c3 2110 	str.w	r2, [r3, #272]	@ 0x110
70102990:	f44f 2200 	mov.w	r2, #524288	@ 0x80000
70102994:	f7ff b925 	b.w	70101be2 <HAL_RCCEx_PeriphCLKConfig+0xde>
70102998:	4bbe      	ldr	r3, [pc, #760]	@ (70102c94 <HAL_RCCEx_PeriphCLKConfig+0x1190>)
7010299a:	4298      	cmp	r0, r3
7010299c:	d111      	bne.n	701029c2 <HAL_RCCEx_PeriphCLKConfig+0xebe>
7010299e:	4abe      	ldr	r2, [pc, #760]	@ (70102c98 <HAL_RCCEx_PeriphCLKConfig+0x1194>)
701029a0:	6a61      	ldr	r1, [r4, #36]	@ 0x24
701029a2:	f8d2 30d0 	ldr.w	r3, [r2, #208]	@ 0xd0
701029a6:	6a27      	ldr	r7, [r4, #32]
701029a8:	f023 5343 	bic.w	r3, r3, #817889280	@ 0x30c00000
701029ac:	f423 137c 	bic.w	r3, r3, #4128768	@ 0x3f0000
701029b0:	3901      	subs	r1, #1
701029b2:	433b      	orrs	r3, r7
701029b4:	ea43 4301 	orr.w	r3, r3, r1, lsl #16
701029b8:	f8c2 30d0 	str.w	r3, [r2, #208]	@ 0xd0
701029bc:	2308      	movs	r3, #8
701029be:	f7ff b932 	b.w	70101c26 <HAL_RCCEx_PeriphCLKConfig+0x122>
701029c2:	4bb6      	ldr	r3, [pc, #728]	@ (70102c9c <HAL_RCCEx_PeriphCLKConfig+0x1198>)
701029c4:	4298      	cmp	r0, r3
701029c6:	bf02      	ittt	eq
701029c8:	2240      	moveq	r2, #64	@ 0x40
701029ca:	4bb3      	ldreq	r3, [pc, #716]	@ (70102c98 <HAL_RCCEx_PeriphCLKConfig+0x1194>)
701029cc:	f8c3 2a48 	streq.w	r2, [r3, #2632]	@ 0xa48
701029d0:	f7ff b92b 	b.w	70101c2a <HAL_RCCEx_PeriphCLKConfig+0x126>
701029d4:	4bb2      	ldr	r3, [pc, #712]	@ (70102ca0 <HAL_RCCEx_PeriphCLKConfig+0x119c>)
701029d6:	4298      	cmp	r0, r3
701029d8:	d111      	bne.n	701029fe <HAL_RCCEx_PeriphCLKConfig+0xefa>
701029da:	4aaf      	ldr	r2, [pc, #700]	@ (70102c98 <HAL_RCCEx_PeriphCLKConfig+0x1194>)
701029dc:	6a61      	ldr	r1, [r4, #36]	@ 0x24
701029de:	f8d2 30d0 	ldr.w	r3, [r2, #208]	@ 0xd0
701029e2:	6a27      	ldr	r7, [r4, #32]
701029e4:	f023 5343 	bic.w	r3, r3, #817889280	@ 0x30c00000
701029e8:	f423 137c 	bic.w	r3, r3, #4128768	@ 0x3f0000
701029ec:	3901      	subs	r1, #1
701029ee:	433b      	orrs	r3, r7
701029f0:	ea43 4301 	orr.w	r3, r3, r1, lsl #16
701029f4:	f8c2 30d0 	str.w	r3, [r2, #208]	@ 0xd0
701029f8:	2308      	movs	r3, #8
701029fa:	f7ff b930 	b.w	70101c5e <HAL_RCCEx_PeriphCLKConfig+0x15a>
701029fe:	4ba9      	ldr	r3, [pc, #676]	@ (70102ca4 <HAL_RCCEx_PeriphCLKConfig+0x11a0>)
70102a00:	4298      	cmp	r0, r3
70102a02:	bf02      	ittt	eq
70102a04:	2240      	moveq	r2, #64	@ 0x40
70102a06:	4ba4      	ldreq	r3, [pc, #656]	@ (70102c98 <HAL_RCCEx_PeriphCLKConfig+0x1194>)
70102a08:	f8c3 2a48 	streq.w	r2, [r3, #2632]	@ 0xa48
70102a0c:	f7ff b929 	b.w	70101c62 <HAL_RCCEx_PeriphCLKConfig+0x15e>
70102a10:	4ba5      	ldr	r3, [pc, #660]	@ (70102ca8 <HAL_RCCEx_PeriphCLKConfig+0x11a4>)
70102a12:	4298      	cmp	r0, r3
70102a14:	d111      	bne.n	70102a3a <HAL_RCCEx_PeriphCLKConfig+0xf36>
70102a16:	4aa0      	ldr	r2, [pc, #640]	@ (70102c98 <HAL_RCCEx_PeriphCLKConfig+0x1194>)
70102a18:	6a61      	ldr	r1, [r4, #36]	@ 0x24
70102a1a:	f8d2 30d0 	ldr.w	r3, [r2, #208]	@ 0xd0
70102a1e:	6a27      	ldr	r7, [r4, #32]
70102a20:	f023 5343 	bic.w	r3, r3, #817889280	@ 0x30c00000
70102a24:	f423 137c 	bic.w	r3, r3, #4128768	@ 0x3f0000
70102a28:	3901      	subs	r1, #1
70102a2a:	433b      	orrs	r3, r7
70102a2c:	ea43 4301 	orr.w	r3, r3, r1, lsl #16
70102a30:	f8c2 30d0 	str.w	r3, [r2, #208]	@ 0xd0
70102a34:	2308      	movs	r3, #8
70102a36:	f7ff b92e 	b.w	70101c96 <HAL_RCCEx_PeriphCLKConfig+0x192>
70102a3a:	4b9c      	ldr	r3, [pc, #624]	@ (70102cac <HAL_RCCEx_PeriphCLKConfig+0x11a8>)
70102a3c:	4298      	cmp	r0, r3
70102a3e:	bf02      	ittt	eq
70102a40:	2240      	moveq	r2, #64	@ 0x40
70102a42:	4b95      	ldreq	r3, [pc, #596]	@ (70102c98 <HAL_RCCEx_PeriphCLKConfig+0x1194>)
70102a44:	f8c3 2a48 	streq.w	r2, [r3, #2632]	@ 0xa48
70102a48:	f7ff b927 	b.w	70101c9a <HAL_RCCEx_PeriphCLKConfig+0x196>
70102a4c:	2930      	cmp	r1, #48	@ 0x30
70102a4e:	d110      	bne.n	70102a72 <HAL_RCCEx_PeriphCLKConfig+0xf6e>
70102a50:	f8d2 30d0 	ldr.w	r3, [r2, #208]	@ 0xd0
70102a54:	6a60      	ldr	r0, [r4, #36]	@ 0x24
70102a56:	6a27      	ldr	r7, [r4, #32]
70102a58:	f023 5343 	bic.w	r3, r3, #817889280	@ 0x30c00000
70102a5c:	f423 137c 	bic.w	r3, r3, #4128768	@ 0x3f0000
70102a60:	3801      	subs	r0, #1
70102a62:	433b      	orrs	r3, r7
70102a64:	ea43 4300 	orr.w	r3, r3, r0, lsl #16
70102a68:	f8c2 30d0 	str.w	r3, [r2, #208]	@ 0xd0
70102a6c:	2308      	movs	r3, #8
70102a6e:	f7ff b92d 	b.w	70101ccc <HAL_RCCEx_PeriphCLKConfig+0x1c8>
70102a72:	2910      	cmp	r1, #16
70102a74:	bf04      	itt	eq
70102a76:	2340      	moveq	r3, #64	@ 0x40
70102a78:	f8c2 3a48 	streq.w	r3, [r2, #2632]	@ 0xa48
70102a7c:	f7ff b928 	b.w	70101cd0 <HAL_RCCEx_PeriphCLKConfig+0x1cc>
70102a80:	4b8b      	ldr	r3, [pc, #556]	@ (70102cb0 <HAL_RCCEx_PeriphCLKConfig+0x11ac>)
70102a82:	4298      	cmp	r0, r3
70102a84:	d111      	bne.n	70102aaa <HAL_RCCEx_PeriphCLKConfig+0xfa6>
70102a86:	4a84      	ldr	r2, [pc, #528]	@ (70102c98 <HAL_RCCEx_PeriphCLKConfig+0x1194>)
70102a88:	6ae1      	ldr	r1, [r4, #44]	@ 0x2c
70102a8a:	f8d2 30d4 	ldr.w	r3, [r2, #212]	@ 0xd4
70102a8e:	6aa7      	ldr	r7, [r4, #40]	@ 0x28
70102a90:	f023 5343 	bic.w	r3, r3, #817889280	@ 0x30c00000
70102a94:	f423 137c 	bic.w	r3, r3, #4128768	@ 0x3f0000
70102a98:	3901      	subs	r1, #1
70102a9a:	433b      	orrs	r3, r7
70102a9c:	ea43 4301 	orr.w	r3, r3, r1, lsl #16
70102aa0:	f8c2 30d4 	str.w	r3, [r2, #212]	@ 0xd4
70102aa4:	2310      	movs	r3, #16
70102aa6:	f7ff b933 	b.w	70101d10 <HAL_RCCEx_PeriphCLKConfig+0x20c>
70102aaa:	4b82      	ldr	r3, [pc, #520]	@ (70102cb4 <HAL_RCCEx_PeriphCLKConfig+0x11b0>)
70102aac:	4298      	cmp	r0, r3
70102aae:	bf02      	ittt	eq
70102ab0:	2240      	moveq	r2, #64	@ 0x40
70102ab2:	4b79      	ldreq	r3, [pc, #484]	@ (70102c98 <HAL_RCCEx_PeriphCLKConfig+0x1194>)
70102ab4:	f8c3 2a48 	streq.w	r2, [r3, #2632]	@ 0xa48
70102ab8:	f7ff b92c 	b.w	70101d14 <HAL_RCCEx_PeriphCLKConfig+0x210>
70102abc:	4b7e      	ldr	r3, [pc, #504]	@ (70102cb8 <HAL_RCCEx_PeriphCLKConfig+0x11b4>)
70102abe:	4298      	cmp	r0, r3
70102ac0:	d111      	bne.n	70102ae6 <HAL_RCCEx_PeriphCLKConfig+0xfe2>
70102ac2:	4a75      	ldr	r2, [pc, #468]	@ (70102c98 <HAL_RCCEx_PeriphCLKConfig+0x1194>)
70102ac4:	6ae1      	ldr	r1, [r4, #44]	@ 0x2c
70102ac6:	f8d2 30d4 	ldr.w	r3, [r2, #212]	@ 0xd4
70102aca:	6aa7      	ldr	r7, [r4, #40]	@ 0x28
70102acc:	f023 5343 	bic.w	r3, r3, #817889280	@ 0x30c00000
70102ad0:	f423 137c 	bic.w	r3, r3, #4128768	@ 0x3f0000
70102ad4:	3901      	subs	r1, #1
70102ad6:	433b      	orrs	r3, r7
70102ad8:	ea43 4301 	orr.w	r3, r3, r1, lsl #16
70102adc:	f8c2 30d4 	str.w	r3, [r2, #212]	@ 0xd4
70102ae0:	2310      	movs	r3, #16
70102ae2:	f7ff b931 	b.w	70101d48 <HAL_RCCEx_PeriphCLKConfig+0x244>
70102ae6:	4b75      	ldr	r3, [pc, #468]	@ (70102cbc <HAL_RCCEx_PeriphCLKConfig+0x11b8>)
70102ae8:	4298      	cmp	r0, r3
70102aea:	bf02      	ittt	eq
70102aec:	2240      	moveq	r2, #64	@ 0x40
70102aee:	4b6a      	ldreq	r3, [pc, #424]	@ (70102c98 <HAL_RCCEx_PeriphCLKConfig+0x1194>)
70102af0:	f8c3 2a48 	streq.w	r2, [r3, #2632]	@ 0xa48
70102af4:	f7ff b92a 	b.w	70101d4c <HAL_RCCEx_PeriphCLKConfig+0x248>
70102af8:	2a30      	cmp	r2, #48	@ 0x30
70102afa:	d110      	bne.n	70102b1e <HAL_RCCEx_PeriphCLKConfig+0x101a>
70102afc:	f8d1 30e0 	ldr.w	r3, [r1, #224]	@ 0xe0
70102b00:	6c60      	ldr	r0, [r4, #68]	@ 0x44
70102b02:	6c27      	ldr	r7, [r4, #64]	@ 0x40
70102b04:	f023 5343 	bic.w	r3, r3, #817889280	@ 0x30c00000
70102b08:	f423 137c 	bic.w	r3, r3, #4128768	@ 0x3f0000
70102b0c:	3801      	subs	r0, #1
70102b0e:	433b      	orrs	r3, r7
70102b10:	ea43 4300 	orr.w	r3, r3, r0, lsl #16
70102b14:	f8c1 30e0 	str.w	r3, [r1, #224]	@ 0xe0
70102b18:	2380      	movs	r3, #128	@ 0x80
70102b1a:	f7ff b930 	b.w	70101d7e <HAL_RCCEx_PeriphCLKConfig+0x27a>
70102b1e:	2a10      	cmp	r2, #16
70102b20:	bf04      	itt	eq
70102b22:	2340      	moveq	r3, #64	@ 0x40
70102b24:	f8c1 3a48 	streq.w	r3, [r1, #2632]	@ 0xa48
70102b28:	f7ff b92b 	b.w	70101d82 <HAL_RCCEx_PeriphCLKConfig+0x27e>
70102b2c:	2903      	cmp	r1, #3
70102b2e:	d110      	bne.n	70102b52 <HAL_RCCEx_PeriphCLKConfig+0x104e>
70102b30:	f8d2 30e0 	ldr.w	r3, [r2, #224]	@ 0xe0
70102b34:	6c60      	ldr	r0, [r4, #68]	@ 0x44
70102b36:	6c27      	ldr	r7, [r4, #64]	@ 0x40
70102b38:	f023 5343 	bic.w	r3, r3, #817889280	@ 0x30c00000
70102b3c:	f423 137c 	bic.w	r3, r3, #4128768	@ 0x3f0000
70102b40:	3801      	subs	r0, #1
70102b42:	433b      	orrs	r3, r7
70102b44:	ea43 4300 	orr.w	r3, r3, r0, lsl #16
70102b48:	f8c2 30e0 	str.w	r3, [r2, #224]	@ 0xe0
70102b4c:	2380      	movs	r3, #128	@ 0x80
70102b4e:	f7ff b93e 	b.w	70101dce <HAL_RCCEx_PeriphCLKConfig+0x2ca>
70102b52:	2901      	cmp	r1, #1
70102b54:	bf04      	itt	eq
70102b56:	2340      	moveq	r3, #64	@ 0x40
70102b58:	f8c2 3a48 	streq.w	r3, [r2, #2632]	@ 0xa48
70102b5c:	f7ff b939 	b.w	70101dd2 <HAL_RCCEx_PeriphCLKConfig+0x2ce>
70102b60:	f5b1 1f80 	cmp.w	r1, #1048576	@ 0x100000
70102b64:	bf04      	itt	eq
70102b66:	2340      	moveq	r3, #64	@ 0x40
70102b68:	f8c2 3a48 	streq.w	r3, [r2, #2632]	@ 0xa48
70102b6c:	f7ff b96d 	b.w	70101e4a <HAL_RCCEx_PeriphCLKConfig+0x346>
70102b70:	f5b1 5f80 	cmp.w	r1, #4096	@ 0x1000
70102b74:	bf04      	itt	eq
70102b76:	2340      	moveq	r3, #64	@ 0x40
70102b78:	f8c2 3a48 	streq.w	r3, [r2, #2632]	@ 0xa48
70102b7c:	f7ff b988 	b.w	70101e90 <HAL_RCCEx_PeriphCLKConfig+0x38c>
70102b80:	2901      	cmp	r1, #1
70102b82:	bf04      	itt	eq
70102b84:	2340      	moveq	r3, #64	@ 0x40
70102b86:	f8c2 3a48 	streq.w	r3, [r2, #2632]	@ 0xa48
70102b8a:	f7ff b9d5 	b.w	70101f38 <HAL_RCCEx_PeriphCLKConfig+0x434>
70102b8e:	2901      	cmp	r1, #1
70102b90:	bf04      	itt	eq
70102b92:	2340      	moveq	r3, #64	@ 0x40
70102b94:	f8c2 3a48 	streq.w	r3, [r2, #2632]	@ 0xa48
70102b98:	f7ff b9f7 	b.w	70101f8a <HAL_RCCEx_PeriphCLKConfig+0x486>
70102b9c:	4b48      	ldr	r3, [pc, #288]	@ (70102cc0 <HAL_RCCEx_PeriphCLKConfig+0x11bc>)
70102b9e:	4298      	cmp	r0, r3
70102ba0:	d112      	bne.n	70102bc8 <HAL_RCCEx_PeriphCLKConfig+0x10c4>
70102ba2:	4a3d      	ldr	r2, [pc, #244]	@ (70102c98 <HAL_RCCEx_PeriphCLKConfig+0x1194>)
70102ba4:	6fe1      	ldr	r1, [r4, #124]	@ 0x7c
70102ba6:	f8d2 30fc 	ldr.w	r3, [r2, #252]	@ 0xfc
70102baa:	6fa7      	ldr	r7, [r4, #120]	@ 0x78
70102bac:	f023 5343 	bic.w	r3, r3, #817889280	@ 0x30c00000
70102bb0:	f423 137c 	bic.w	r3, r3, #4128768	@ 0x3f0000
70102bb4:	3901      	subs	r1, #1
70102bb6:	433b      	orrs	r3, r7
70102bb8:	ea43 4301 	orr.w	r3, r3, r1, lsl #16
70102bbc:	f8c2 30fc 	str.w	r3, [r2, #252]	@ 0xfc
70102bc0:	f44f 4380 	mov.w	r3, #16384	@ 0x4000
70102bc4:	f7ff ba02 	b.w	70101fcc <HAL_RCCEx_PeriphCLKConfig+0x4c8>
70102bc8:	4b3e      	ldr	r3, [pc, #248]	@ (70102cc4 <HAL_RCCEx_PeriphCLKConfig+0x11c0>)
70102bca:	4298      	cmp	r0, r3
70102bcc:	bf02      	ittt	eq
70102bce:	2240      	moveq	r2, #64	@ 0x40
70102bd0:	4b31      	ldreq	r3, [pc, #196]	@ (70102c98 <HAL_RCCEx_PeriphCLKConfig+0x1194>)
70102bd2:	f8c3 2a48 	streq.w	r2, [r3, #2632]	@ 0xa48
70102bd6:	f7ff b9fb 	b.w	70101fd0 <HAL_RCCEx_PeriphCLKConfig+0x4cc>
70102bda:	4b3b      	ldr	r3, [pc, #236]	@ (70102cc8 <HAL_RCCEx_PeriphCLKConfig+0x11c4>)
70102bdc:	4298      	cmp	r0, r3
70102bde:	d112      	bne.n	70102c06 <HAL_RCCEx_PeriphCLKConfig+0x1102>
70102be0:	4a2d      	ldr	r2, [pc, #180]	@ (70102c98 <HAL_RCCEx_PeriphCLKConfig+0x1194>)
70102be2:	6fe1      	ldr	r1, [r4, #124]	@ 0x7c
70102be4:	f8d2 30fc 	ldr.w	r3, [r2, #252]	@ 0xfc
70102be8:	6fa7      	ldr	r7, [r4, #120]	@ 0x78
70102bea:	f023 5343 	bic.w	r3, r3, #817889280	@ 0x30c00000
70102bee:	f423 137c 	bic.w	r3, r3, #4128768	@ 0x3f0000
70102bf2:	3901      	subs	r1, #1
70102bf4:	433b      	orrs	r3, r7
70102bf6:	ea43 4301 	orr.w	r3, r3, r1, lsl #16
70102bfa:	f8c2 30fc 	str.w	r3, [r2, #252]	@ 0xfc
70102bfe:	f44f 4380 	mov.w	r3, #16384	@ 0x4000
70102c02:	f7ff ba00 	b.w	70102006 <HAL_RCCEx_PeriphCLKConfig+0x502>
70102c06:	4b31      	ldr	r3, [pc, #196]	@ (70102ccc <HAL_RCCEx_PeriphCLKConfig+0x11c8>)
70102c08:	4298      	cmp	r0, r3
70102c0a:	bf02      	ittt	eq
70102c0c:	2240      	moveq	r2, #64	@ 0x40
70102c0e:	4b22      	ldreq	r3, [pc, #136]	@ (70102c98 <HAL_RCCEx_PeriphCLKConfig+0x1194>)
70102c10:	f8c3 2a48 	streq.w	r2, [r3, #2632]	@ 0xa48
70102c14:	f7ff b9f9 	b.w	7010200a <HAL_RCCEx_PeriphCLKConfig+0x506>
70102c18:	4b2d      	ldr	r3, [pc, #180]	@ (70102cd0 <HAL_RCCEx_PeriphCLKConfig+0x11cc>)
70102c1a:	4298      	cmp	r0, r3
70102c1c:	d112      	bne.n	70102c44 <HAL_RCCEx_PeriphCLKConfig+0x1140>
70102c1e:	4a1e      	ldr	r2, [pc, #120]	@ (70102c98 <HAL_RCCEx_PeriphCLKConfig+0x1194>)
70102c20:	6fe1      	ldr	r1, [r4, #124]	@ 0x7c
70102c22:	f8d2 30fc 	ldr.w	r3, [r2, #252]	@ 0xfc
70102c26:	6fa7      	ldr	r7, [r4, #120]	@ 0x78
70102c28:	f023 5343 	bic.w	r3, r3, #817889280	@ 0x30c00000
70102c2c:	f423 137c 	bic.w	r3, r3, #4128768	@ 0x3f0000
70102c30:	3901      	subs	r1, #1
70102c32:	433b      	orrs	r3, r7
70102c34:	ea43 4301 	orr.w	r3, r3, r1, lsl #16
70102c38:	f8c2 30fc 	str.w	r3, [r2, #252]	@ 0xfc
70102c3c:	f44f 4380 	mov.w	r3, #16384	@ 0x4000
70102c40:	f7ff b9fe 	b.w	70102040 <HAL_RCCEx_PeriphCLKConfig+0x53c>
70102c44:	4b23      	ldr	r3, [pc, #140]	@ (70102cd4 <HAL_RCCEx_PeriphCLKConfig+0x11d0>)
70102c46:	4298      	cmp	r0, r3
70102c48:	bf02      	ittt	eq
70102c4a:	2240      	moveq	r2, #64	@ 0x40
70102c4c:	4b12      	ldreq	r3, [pc, #72]	@ (70102c98 <HAL_RCCEx_PeriphCLKConfig+0x1194>)
70102c4e:	f8c3 2a48 	streq.w	r2, [r3, #2632]	@ 0xa48
70102c52:	f7ff b9f7 	b.w	70102044 <HAL_RCCEx_PeriphCLKConfig+0x540>
70102c56:	4b20      	ldr	r3, [pc, #128]	@ (70102cd8 <HAL_RCCEx_PeriphCLKConfig+0x11d4>)
70102c58:	4298      	cmp	r0, r3
70102c5a:	d112      	bne.n	70102c82 <HAL_RCCEx_PeriphCLKConfig+0x117e>
70102c5c:	4a0e      	ldr	r2, [pc, #56]	@ (70102c98 <HAL_RCCEx_PeriphCLKConfig+0x1194>)
70102c5e:	6fe1      	ldr	r1, [r4, #124]	@ 0x7c
70102c60:	f8d2 30fc 	ldr.w	r3, [r2, #252]	@ 0xfc
70102c64:	6fa7      	ldr	r7, [r4, #120]	@ 0x78
70102c66:	f023 5343 	bic.w	r3, r3, #817889280	@ 0x30c00000
70102c6a:	f423 137c 	bic.w	r3, r3, #4128768	@ 0x3f0000
70102c6e:	3901      	subs	r1, #1
70102c70:	433b      	orrs	r3, r7
70102c72:	ea43 4301 	orr.w	r3, r3, r1, lsl #16
70102c76:	f8c2 30fc 	str.w	r3, [r2, #252]	@ 0xfc
70102c7a:	f44f 4380 	mov.w	r3, #16384	@ 0x4000
70102c7e:	f7ff b9fc 	b.w	7010207a <HAL_RCCEx_PeriphCLKConfig+0x576>
70102c82:	4b16      	ldr	r3, [pc, #88]	@ (70102cdc <HAL_RCCEx_PeriphCLKConfig+0x11d8>)
70102c84:	4298      	cmp	r0, r3
70102c86:	bf02      	ittt	eq
70102c88:	2240      	moveq	r2, #64	@ 0x40
70102c8a:	4b03      	ldreq	r3, [pc, #12]	@ (70102c98 <HAL_RCCEx_PeriphCLKConfig+0x1194>)
70102c8c:	f8c3 2a48 	streq.w	r2, [r3, #2632]	@ 0xa48
70102c90:	f7ff b9f5 	b.w	7010207e <HAL_RCCEx_PeriphCLKConfig+0x57a>
70102c94:	03030014 	.word	0x03030014
70102c98:	56028000 	.word	0x56028000
70102c9c:	03010014 	.word	0x03010014
70102ca0:	03030414 	.word	0x03030414
70102ca4:	03010414 	.word	0x03010414
70102ca8:	03030814 	.word	0x03030814
70102cac:	03010814 	.word	0x03010814
70102cb0:	0303001c 	.word	0x0303001c
70102cb4:	0301001c 	.word	0x0301001c
70102cb8:	0303041c 	.word	0x0303041c
70102cbc:	0301041c 	.word	0x0301041c
70102cc0:	0703000c 	.word	0x0703000c
70102cc4:	0701000c 	.word	0x0701000c
70102cc8:	0703040c 	.word	0x0703040c
70102ccc:	0701040c 	.word	0x0701040c
70102cd0:	0703080c 	.word	0x0703080c
70102cd4:	0701080c 	.word	0x0701080c
70102cd8:	07030c0c 	.word	0x07030c0c
70102cdc:	07010c0c 	.word	0x07010c0c
70102ce0:	4bb2      	ldr	r3, [pc, #712]	@ (70102fac <HAL_RCCEx_PeriphCLKConfig+0x14a8>)
70102ce2:	4298      	cmp	r0, r3
70102ce4:	d112      	bne.n	70102d0c <HAL_RCCEx_PeriphCLKConfig+0x1208>
70102ce6:	4ab2      	ldr	r2, [pc, #712]	@ (70102fb0 <HAL_RCCEx_PeriphCLKConfig+0x14ac>)
70102ce8:	6fe1      	ldr	r1, [r4, #124]	@ 0x7c
70102cea:	f8d2 30fc 	ldr.w	r3, [r2, #252]	@ 0xfc
70102cee:	6fa7      	ldr	r7, [r4, #120]	@ 0x78
70102cf0:	f023 5343 	bic.w	r3, r3, #817889280	@ 0x30c00000
70102cf4:	f423 137c 	bic.w	r3, r3, #4128768	@ 0x3f0000
70102cf8:	3901      	subs	r1, #1
70102cfa:	433b      	orrs	r3, r7
70102cfc:	ea43 4301 	orr.w	r3, r3, r1, lsl #16
70102d00:	f8c2 30fc 	str.w	r3, [r2, #252]	@ 0xfc
70102d04:	f44f 4380 	mov.w	r3, #16384	@ 0x4000
70102d08:	f7ff b9d4 	b.w	701020b4 <HAL_RCCEx_PeriphCLKConfig+0x5b0>
70102d0c:	4ba9      	ldr	r3, [pc, #676]	@ (70102fb4 <HAL_RCCEx_PeriphCLKConfig+0x14b0>)
70102d0e:	4298      	cmp	r0, r3
70102d10:	bf02      	ittt	eq
70102d12:	2240      	moveq	r2, #64	@ 0x40
70102d14:	4ba6      	ldreq	r3, [pc, #664]	@ (70102fb0 <HAL_RCCEx_PeriphCLKConfig+0x14ac>)
70102d16:	f8c3 2a48 	streq.w	r2, [r3, #2632]	@ 0xa48
70102d1a:	f7ff b9cd 	b.w	701020b8 <HAL_RCCEx_PeriphCLKConfig+0x5b4>
70102d1e:	4ba6      	ldr	r3, [pc, #664]	@ (70102fb8 <HAL_RCCEx_PeriphCLKConfig+0x14b4>)
70102d20:	4298      	cmp	r0, r3
70102d22:	d112      	bne.n	70102d4a <HAL_RCCEx_PeriphCLKConfig+0x1246>
70102d24:	4aa2      	ldr	r2, [pc, #648]	@ (70102fb0 <HAL_RCCEx_PeriphCLKConfig+0x14ac>)
70102d26:	6fe1      	ldr	r1, [r4, #124]	@ 0x7c
70102d28:	f8d2 30fc 	ldr.w	r3, [r2, #252]	@ 0xfc
70102d2c:	6fa7      	ldr	r7, [r4, #120]	@ 0x78
70102d2e:	f023 5343 	bic.w	r3, r3, #817889280	@ 0x30c00000
70102d32:	f423 137c 	bic.w	r3, r3, #4128768	@ 0x3f0000
70102d36:	3901      	subs	r1, #1
70102d38:	433b      	orrs	r3, r7
70102d3a:	ea43 4301 	orr.w	r3, r3, r1, lsl #16
70102d3e:	f8c2 30fc 	str.w	r3, [r2, #252]	@ 0xfc
70102d42:	f44f 4380 	mov.w	r3, #16384	@ 0x4000
70102d46:	f7ff b9d2 	b.w	701020ee <HAL_RCCEx_PeriphCLKConfig+0x5ea>
70102d4a:	4b9c      	ldr	r3, [pc, #624]	@ (70102fbc <HAL_RCCEx_PeriphCLKConfig+0x14b8>)
70102d4c:	4298      	cmp	r0, r3
70102d4e:	bf02      	ittt	eq
70102d50:	2240      	moveq	r2, #64	@ 0x40
70102d52:	4b97      	ldreq	r3, [pc, #604]	@ (70102fb0 <HAL_RCCEx_PeriphCLKConfig+0x14ac>)
70102d54:	f8c3 2a48 	streq.w	r2, [r3, #2632]	@ 0xa48
70102d58:	f7ff b9cb 	b.w	701020f2 <HAL_RCCEx_PeriphCLKConfig+0x5ee>
70102d5c:	4b98      	ldr	r3, [pc, #608]	@ (70102fc0 <HAL_RCCEx_PeriphCLKConfig+0x14bc>)
70102d5e:	4298      	cmp	r0, r3
70102d60:	bf02      	ittt	eq
70102d62:	2240      	moveq	r2, #64	@ 0x40
70102d64:	4b92      	ldreq	r3, [pc, #584]	@ (70102fb0 <HAL_RCCEx_PeriphCLKConfig+0x14ac>)
70102d66:	f8c3 2a48 	streq.w	r2, [r3, #2632]	@ 0xa48
70102d6a:	f7ff b9df 	b.w	7010212c <HAL_RCCEx_PeriphCLKConfig+0x628>
70102d6e:	4b95      	ldr	r3, [pc, #596]	@ (70102fc4 <HAL_RCCEx_PeriphCLKConfig+0x14c0>)
70102d70:	4298      	cmp	r0, r3
70102d72:	bf02      	ittt	eq
70102d74:	2240      	moveq	r2, #64	@ 0x40
70102d76:	4b8e      	ldreq	r3, [pc, #568]	@ (70102fb0 <HAL_RCCEx_PeriphCLKConfig+0x14ac>)
70102d78:	f8c3 2a48 	streq.w	r2, [r3, #2632]	@ 0xa48
70102d7c:	f7ff b9f3 	b.w	70102166 <HAL_RCCEx_PeriphCLKConfig+0x662>
70102d80:	4b91      	ldr	r3, [pc, #580]	@ (70102fc8 <HAL_RCCEx_PeriphCLKConfig+0x14c4>)
70102d82:	4298      	cmp	r0, r3
70102d84:	bf02      	ittt	eq
70102d86:	2240      	moveq	r2, #64	@ 0x40
70102d88:	4b89      	ldreq	r3, [pc, #548]	@ (70102fb0 <HAL_RCCEx_PeriphCLKConfig+0x14ac>)
70102d8a:	f8c3 2a48 	streq.w	r2, [r3, #2632]	@ 0xa48
70102d8e:	f7ff ba07 	b.w	701021a0 <HAL_RCCEx_PeriphCLKConfig+0x69c>
70102d92:	4b8e      	ldr	r3, [pc, #568]	@ (70102fcc <HAL_RCCEx_PeriphCLKConfig+0x14c8>)
70102d94:	4298      	cmp	r0, r3
70102d96:	bf02      	ittt	eq
70102d98:	2240      	moveq	r2, #64	@ 0x40
70102d9a:	4b85      	ldreq	r3, [pc, #532]	@ (70102fb0 <HAL_RCCEx_PeriphCLKConfig+0x14ac>)
70102d9c:	f8c3 2a48 	streq.w	r2, [r3, #2632]	@ 0xa48
70102da0:	f7ff ba1b 	b.w	701021da <HAL_RCCEx_PeriphCLKConfig+0x6d6>
70102da4:	4b8a      	ldr	r3, [pc, #552]	@ (70102fd0 <HAL_RCCEx_PeriphCLKConfig+0x14cc>)
70102da6:	4298      	cmp	r0, r3
70102da8:	bf02      	ittt	eq
70102daa:	2240      	moveq	r2, #64	@ 0x40
70102dac:	4b80      	ldreq	r3, [pc, #512]	@ (70102fb0 <HAL_RCCEx_PeriphCLKConfig+0x14ac>)
70102dae:	f8c3 2a48 	streq.w	r2, [r3, #2632]	@ 0xa48
70102db2:	f7ff ba2f 	b.w	70102214 <HAL_RCCEx_PeriphCLKConfig+0x710>
70102db6:	f5b1 7f40 	cmp.w	r1, #768	@ 0x300
70102dba:	d111      	bne.n	70102de0 <HAL_RCCEx_PeriphCLKConfig+0x12dc>
70102dbc:	f8d2 30f8 	ldr.w	r3, [r2, #248]	@ 0xf8
70102dc0:	6f60      	ldr	r0, [r4, #116]	@ 0x74
70102dc2:	6f27      	ldr	r7, [r4, #112]	@ 0x70
70102dc4:	f023 5343 	bic.w	r3, r3, #817889280	@ 0x30c00000
70102dc8:	f423 137c 	bic.w	r3, r3, #4128768	@ 0x3f0000
70102dcc:	3801      	subs	r0, #1
70102dce:	433b      	orrs	r3, r7
70102dd0:	ea43 4300 	orr.w	r3, r3, r0, lsl #16
70102dd4:	f8c2 30f8 	str.w	r3, [r2, #248]	@ 0xf8
70102dd8:	f44f 5300 	mov.w	r3, #8192	@ 0x2000
70102ddc:	f7ff ba35 	b.w	7010224a <HAL_RCCEx_PeriphCLKConfig+0x746>
70102de0:	f5b1 7f80 	cmp.w	r1, #256	@ 0x100
70102de4:	bf04      	itt	eq
70102de6:	2340      	moveq	r3, #64	@ 0x40
70102de8:	f8c2 3a48 	streq.w	r3, [r2, #2632]	@ 0xa48
70102dec:	f7ff ba2f 	b.w	7010224e <HAL_RCCEx_PeriphCLKConfig+0x74a>
70102df0:	f1b1 7f80 	cmp.w	r1, #16777216	@ 0x1000000
70102df4:	bf04      	itt	eq
70102df6:	2340      	moveq	r3, #64	@ 0x40
70102df8:	f8c2 3a48 	streq.w	r3, [r2, #2632]	@ 0xa48
70102dfc:	f7ff ba65 	b.w	701022ca <HAL_RCCEx_PeriphCLKConfig+0x7c6>
70102e00:	f5b1 3f40 	cmp.w	r1, #196608	@ 0x30000
70102e04:	d110      	bne.n	70102e28 <HAL_RCCEx_PeriphCLKConfig+0x1324>
70102e06:	f8d2 30e0 	ldr.w	r3, [r2, #224]	@ 0xe0
70102e0a:	6c60      	ldr	r0, [r4, #68]	@ 0x44
70102e0c:	6c27      	ldr	r7, [r4, #64]	@ 0x40
70102e0e:	f023 5343 	bic.w	r3, r3, #817889280	@ 0x30c00000
70102e12:	f423 137c 	bic.w	r3, r3, #4128768	@ 0x3f0000
70102e16:	3801      	subs	r0, #1
70102e18:	433b      	orrs	r3, r7
70102e1a:	ea43 4300 	orr.w	r3, r3, r0, lsl #16
70102e1e:	f8c2 30e0 	str.w	r3, [r2, #224]	@ 0xe0
70102e22:	2380      	movs	r3, #128	@ 0x80
70102e24:	f7ff ba71 	b.w	7010230a <HAL_RCCEx_PeriphCLKConfig+0x806>
70102e28:	f5b1 3f80 	cmp.w	r1, #65536	@ 0x10000
70102e2c:	bf04      	itt	eq
70102e2e:	2340      	moveq	r3, #64	@ 0x40
70102e30:	f8c2 3a48 	streq.w	r3, [r2, #2632]	@ 0xa48
70102e34:	f7ff ba6b 	b.w	7010230e <HAL_RCCEx_PeriphCLKConfig+0x80a>
70102e38:	2910      	cmp	r1, #16
70102e3a:	bf04      	itt	eq
70102e3c:	2340      	moveq	r3, #64	@ 0x40
70102e3e:	f8c2 3a48 	streq.w	r3, [r2, #2632]	@ 0xa48
70102e42:	f7ff ba88 	b.w	70102356 <HAL_RCCEx_PeriphCLKConfig+0x852>
70102e46:	4b63      	ldr	r3, [pc, #396]	@ (70102fd4 <HAL_RCCEx_PeriphCLKConfig+0x14d0>)
70102e48:	4298      	cmp	r0, r3
70102e4a:	d111      	bne.n	70102e70 <HAL_RCCEx_PeriphCLKConfig+0x136c>
70102e4c:	4a58      	ldr	r2, [pc, #352]	@ (70102fb0 <HAL_RCCEx_PeriphCLKConfig+0x14ac>)
70102e4e:	6c61      	ldr	r1, [r4, #68]	@ 0x44
70102e50:	f8d2 30e0 	ldr.w	r3, [r2, #224]	@ 0xe0
70102e54:	6c27      	ldr	r7, [r4, #64]	@ 0x40
70102e56:	f023 5343 	bic.w	r3, r3, #817889280	@ 0x30c00000
70102e5a:	f423 137c 	bic.w	r3, r3, #4128768	@ 0x3f0000
70102e5e:	3901      	subs	r1, #1
70102e60:	433b      	orrs	r3, r7
70102e62:	ea43 4301 	orr.w	r3, r3, r1, lsl #16
70102e66:	f8c2 30e0 	str.w	r3, [r2, #224]	@ 0xe0
70102e6a:	2380      	movs	r3, #128	@ 0x80
70102e6c:	f7ff ba93 	b.w	70102396 <HAL_RCCEx_PeriphCLKConfig+0x892>
70102e70:	4b59      	ldr	r3, [pc, #356]	@ (70102fd8 <HAL_RCCEx_PeriphCLKConfig+0x14d4>)
70102e72:	4298      	cmp	r0, r3
70102e74:	bf02      	ittt	eq
70102e76:	2240      	moveq	r2, #64	@ 0x40
70102e78:	4b4d      	ldreq	r3, [pc, #308]	@ (70102fb0 <HAL_RCCEx_PeriphCLKConfig+0x14ac>)
70102e7a:	f8c3 2a48 	streq.w	r2, [r3, #2632]	@ 0xa48
70102e7e:	f7ff ba8c 	b.w	7010239a <HAL_RCCEx_PeriphCLKConfig+0x896>
70102e82:	4b56      	ldr	r3, [pc, #344]	@ (70102fdc <HAL_RCCEx_PeriphCLKConfig+0x14d8>)
70102e84:	4298      	cmp	r0, r3
70102e86:	d111      	bne.n	70102eac <HAL_RCCEx_PeriphCLKConfig+0x13a8>
70102e88:	4a49      	ldr	r2, [pc, #292]	@ (70102fb0 <HAL_RCCEx_PeriphCLKConfig+0x14ac>)
70102e8a:	6c61      	ldr	r1, [r4, #68]	@ 0x44
70102e8c:	f8d2 30e0 	ldr.w	r3, [r2, #224]	@ 0xe0
70102e90:	6c25      	ldr	r5, [r4, #64]	@ 0x40
70102e92:	f023 5343 	bic.w	r3, r3, #817889280	@ 0x30c00000
70102e96:	f423 137c 	bic.w	r3, r3, #4128768	@ 0x3f0000
70102e9a:	3901      	subs	r1, #1
70102e9c:	432b      	orrs	r3, r5
70102e9e:	ea43 4301 	orr.w	r3, r3, r1, lsl #16
70102ea2:	f8c2 30e0 	str.w	r3, [r2, #224]	@ 0xe0
70102ea6:	2380      	movs	r3, #128	@ 0x80
70102ea8:	f7ff ba91 	b.w	701023ce <HAL_RCCEx_PeriphCLKConfig+0x8ca>
70102eac:	4b4c      	ldr	r3, [pc, #304]	@ (70102fe0 <HAL_RCCEx_PeriphCLKConfig+0x14dc>)
70102eae:	4298      	cmp	r0, r3
70102eb0:	bf02      	ittt	eq
70102eb2:	2240      	moveq	r2, #64	@ 0x40
70102eb4:	4b3e      	ldreq	r3, [pc, #248]	@ (70102fb0 <HAL_RCCEx_PeriphCLKConfig+0x14ac>)
70102eb6:	f8c3 2a48 	streq.w	r2, [r3, #2632]	@ 0xa48
70102eba:	f7ff ba8a 	b.w	701023d2 <HAL_RCCEx_PeriphCLKConfig+0x8ce>
70102ebe:	2903      	cmp	r1, #3
70102ec0:	d110      	bne.n	70102ee4 <HAL_RCCEx_PeriphCLKConfig+0x13e0>
70102ec2:	f8d2 30e0 	ldr.w	r3, [r2, #224]	@ 0xe0
70102ec6:	6c60      	ldr	r0, [r4, #68]	@ 0x44
70102ec8:	6c25      	ldr	r5, [r4, #64]	@ 0x40
70102eca:	f023 5343 	bic.w	r3, r3, #817889280	@ 0x30c00000
70102ece:	f423 137c 	bic.w	r3, r3, #4128768	@ 0x3f0000
70102ed2:	3801      	subs	r0, #1
70102ed4:	432b      	orrs	r3, r5
70102ed6:	ea43 4300 	orr.w	r3, r3, r0, lsl #16
70102eda:	f8c2 30e0 	str.w	r3, [r2, #224]	@ 0xe0
70102ede:	2380      	movs	r3, #128	@ 0x80
70102ee0:	f7ff ba90 	b.w	70102404 <HAL_RCCEx_PeriphCLKConfig+0x900>
70102ee4:	2901      	cmp	r1, #1
70102ee6:	bf04      	itt	eq
70102ee8:	2340      	moveq	r3, #64	@ 0x40
70102eea:	f8c2 3a48 	streq.w	r3, [r2, #2632]	@ 0xa48
70102eee:	f7ff ba8b 	b.w	70102408 <HAL_RCCEx_PeriphCLKConfig+0x904>
70102ef2:	4b3c      	ldr	r3, [pc, #240]	@ (70102fe4 <HAL_RCCEx_PeriphCLKConfig+0x14e0>)
70102ef4:	4298      	cmp	r0, r3
70102ef6:	d112      	bne.n	70102f1e <HAL_RCCEx_PeriphCLKConfig+0x141a>
70102ef8:	4a2d      	ldr	r2, [pc, #180]	@ (70102fb0 <HAL_RCCEx_PeriphCLKConfig+0x14ac>)
70102efa:	6ce1      	ldr	r1, [r4, #76]	@ 0x4c
70102efc:	f8d2 30e4 	ldr.w	r3, [r2, #228]	@ 0xe4
70102f00:	6ca5      	ldr	r5, [r4, #72]	@ 0x48
70102f02:	f023 5343 	bic.w	r3, r3, #817889280	@ 0x30c00000
70102f06:	f423 137c 	bic.w	r3, r3, #4128768	@ 0x3f0000
70102f0a:	3901      	subs	r1, #1
70102f0c:	432b      	orrs	r3, r5
70102f0e:	ea43 4301 	orr.w	r3, r3, r1, lsl #16
70102f12:	f8c2 30e4 	str.w	r3, [r2, #228]	@ 0xe4
70102f16:	f44f 7380 	mov.w	r3, #256	@ 0x100
70102f1a:	f7ff ba95 	b.w	70102448 <HAL_RCCEx_PeriphCLKConfig+0x944>
70102f1e:	4b32      	ldr	r3, [pc, #200]	@ (70102fe8 <HAL_RCCEx_PeriphCLKConfig+0x14e4>)
70102f20:	4298      	cmp	r0, r3
70102f22:	bf02      	ittt	eq
70102f24:	2240      	moveq	r2, #64	@ 0x40
70102f26:	4b22      	ldreq	r3, [pc, #136]	@ (70102fb0 <HAL_RCCEx_PeriphCLKConfig+0x14ac>)
70102f28:	f8c3 2a48 	streq.w	r2, [r3, #2632]	@ 0xa48
70102f2c:	f7ff ba8e 	b.w	7010244c <HAL_RCCEx_PeriphCLKConfig+0x948>
70102f30:	4b2e      	ldr	r3, [pc, #184]	@ (70102fec <HAL_RCCEx_PeriphCLKConfig+0x14e8>)
70102f32:	4298      	cmp	r0, r3
70102f34:	d112      	bne.n	70102f5c <HAL_RCCEx_PeriphCLKConfig+0x1458>
70102f36:	4a1e      	ldr	r2, [pc, #120]	@ (70102fb0 <HAL_RCCEx_PeriphCLKConfig+0x14ac>)
70102f38:	6ce1      	ldr	r1, [r4, #76]	@ 0x4c
70102f3a:	f8d2 30e4 	ldr.w	r3, [r2, #228]	@ 0xe4
70102f3e:	6ca5      	ldr	r5, [r4, #72]	@ 0x48
70102f40:	f023 5343 	bic.w	r3, r3, #817889280	@ 0x30c00000
70102f44:	f423 137c 	bic.w	r3, r3, #4128768	@ 0x3f0000
70102f48:	3901      	subs	r1, #1
70102f4a:	432b      	orrs	r3, r5
70102f4c:	ea43 4301 	orr.w	r3, r3, r1, lsl #16
70102f50:	f8c2 30e4 	str.w	r3, [r2, #228]	@ 0xe4
70102f54:	f44f 7380 	mov.w	r3, #256	@ 0x100
70102f58:	f7ff ba92 	b.w	70102480 <HAL_RCCEx_PeriphCLKConfig+0x97c>
70102f5c:	4b24      	ldr	r3, [pc, #144]	@ (70102ff0 <HAL_RCCEx_PeriphCLKConfig+0x14ec>)
70102f5e:	4298      	cmp	r0, r3
70102f60:	bf02      	ittt	eq
70102f62:	2240      	moveq	r2, #64	@ 0x40
70102f64:	4b12      	ldreq	r3, [pc, #72]	@ (70102fb0 <HAL_RCCEx_PeriphCLKConfig+0x14ac>)
70102f66:	f8c3 2a48 	streq.w	r2, [r3, #2632]	@ 0xa48
70102f6a:	f7ff ba8b 	b.w	70102484 <HAL_RCCEx_PeriphCLKConfig+0x980>
70102f6e:	4b21      	ldr	r3, [pc, #132]	@ (70102ff4 <HAL_RCCEx_PeriphCLKConfig+0x14f0>)
70102f70:	4298      	cmp	r0, r3
70102f72:	d112      	bne.n	70102f9a <HAL_RCCEx_PeriphCLKConfig+0x1496>
70102f74:	4a0e      	ldr	r2, [pc, #56]	@ (70102fb0 <HAL_RCCEx_PeriphCLKConfig+0x14ac>)
70102f76:	6ce1      	ldr	r1, [r4, #76]	@ 0x4c
70102f78:	f8d2 30e4 	ldr.w	r3, [r2, #228]	@ 0xe4
70102f7c:	6ca5      	ldr	r5, [r4, #72]	@ 0x48
70102f7e:	f023 5343 	bic.w	r3, r3, #817889280	@ 0x30c00000
70102f82:	f423 137c 	bic.w	r3, r3, #4128768	@ 0x3f0000
70102f86:	3901      	subs	r1, #1
70102f88:	432b      	orrs	r3, r5
70102f8a:	ea43 4301 	orr.w	r3, r3, r1, lsl #16
70102f8e:	f8c2 30e4 	str.w	r3, [r2, #228]	@ 0xe4
70102f92:	f44f 7380 	mov.w	r3, #256	@ 0x100
70102f96:	f7ff ba8f 	b.w	701024b8 <HAL_RCCEx_PeriphCLKConfig+0x9b4>
70102f9a:	4b17      	ldr	r3, [pc, #92]	@ (70102ff8 <HAL_RCCEx_PeriphCLKConfig+0x14f4>)
70102f9c:	4298      	cmp	r0, r3
70102f9e:	bf02      	ittt	eq
70102fa0:	2240      	moveq	r2, #64	@ 0x40
70102fa2:	4b03      	ldreq	r3, [pc, #12]	@ (70102fb0 <HAL_RCCEx_PeriphCLKConfig+0x14ac>)
70102fa4:	f8c3 2a48 	streq.w	r2, [r3, #2632]	@ 0xa48
70102fa8:	f7ff ba88 	b.w	701024bc <HAL_RCCEx_PeriphCLKConfig+0x9b8>
70102fac:	0703100c 	.word	0x0703100c
70102fb0:	56028000 	.word	0x56028000
70102fb4:	0701100c 	.word	0x0701100c
70102fb8:	0703140c 	.word	0x0703140c
70102fbc:	0701140c 	.word	0x0701140c
70102fc0:	0701082c 	.word	0x0701082c
70102fc4:	07010c2c 	.word	0x07010c2c
70102fc8:	0701102c 	.word	0x0701102c
70102fcc:	0701142c 	.word	0x0701142c
70102fd0:	0701182c 	.word	0x0701182c
70102fd4:	07031418 	.word	0x07031418
70102fd8:	07011418 	.word	0x07011418
70102fdc:	07031818 	.word	0x07031818
70102fe0:	07011818 	.word	0x07011818
70102fe4:	07030420 	.word	0x07030420
70102fe8:	07010420 	.word	0x07010420
70102fec:	07030820 	.word	0x07030820
70102ff0:	07010820 	.word	0x07010820
70102ff4:	07030c20 	.word	0x07030c20
70102ff8:	07010c20 	.word	0x07010c20
70102ffc:	4bb9      	ldr	r3, [pc, #740]	@ (701032e4 <HAL_RCCEx_PeriphCLKConfig+0x17e0>)
70102ffe:	4298      	cmp	r0, r3
70103000:	d112      	bne.n	70103028 <HAL_RCCEx_PeriphCLKConfig+0x1524>
70103002:	4ab9      	ldr	r2, [pc, #740]	@ (701032e8 <HAL_RCCEx_PeriphCLKConfig+0x17e4>)
70103004:	6f61      	ldr	r1, [r4, #116]	@ 0x74
70103006:	f8d2 30f8 	ldr.w	r3, [r2, #248]	@ 0xf8
7010300a:	6f25      	ldr	r5, [r4, #112]	@ 0x70
7010300c:	f023 5343 	bic.w	r3, r3, #817889280	@ 0x30c00000
70103010:	f423 137c 	bic.w	r3, r3, #4128768	@ 0x3f0000
70103014:	3901      	subs	r1, #1
70103016:	432b      	orrs	r3, r5
70103018:	ea43 4301 	orr.w	r3, r3, r1, lsl #16
7010301c:	f8c2 30f8 	str.w	r3, [r2, #248]	@ 0xf8
70103020:	f44f 5300 	mov.w	r3, #8192	@ 0x2000
70103024:	f7ff ba65 	b.w	701024f2 <HAL_RCCEx_PeriphCLKConfig+0x9ee>
70103028:	4bb0      	ldr	r3, [pc, #704]	@ (701032ec <HAL_RCCEx_PeriphCLKConfig+0x17e8>)
7010302a:	4298      	cmp	r0, r3
7010302c:	bf02      	ittt	eq
7010302e:	2240      	moveq	r2, #64	@ 0x40
70103030:	4bad      	ldreq	r3, [pc, #692]	@ (701032e8 <HAL_RCCEx_PeriphCLKConfig+0x17e4>)
70103032:	f8c3 2a48 	streq.w	r2, [r3, #2632]	@ 0xa48
70103036:	f7ff ba5e 	b.w	701024f6 <HAL_RCCEx_PeriphCLKConfig+0x9f2>
7010303a:	4bad      	ldr	r3, [pc, #692]	@ (701032f0 <HAL_RCCEx_PeriphCLKConfig+0x17ec>)
7010303c:	4298      	cmp	r0, r3
7010303e:	d112      	bne.n	70103066 <HAL_RCCEx_PeriphCLKConfig+0x1562>
70103040:	4aa9      	ldr	r2, [pc, #676]	@ (701032e8 <HAL_RCCEx_PeriphCLKConfig+0x17e4>)
70103042:	6f61      	ldr	r1, [r4, #116]	@ 0x74
70103044:	f8d2 30f8 	ldr.w	r3, [r2, #248]	@ 0xf8
70103048:	6f25      	ldr	r5, [r4, #112]	@ 0x70
7010304a:	f023 5343 	bic.w	r3, r3, #817889280	@ 0x30c00000
7010304e:	f423 137c 	bic.w	r3, r3, #4128768	@ 0x3f0000
70103052:	3901      	subs	r1, #1
70103054:	432b      	orrs	r3, r5
70103056:	ea43 4301 	orr.w	r3, r3, r1, lsl #16
7010305a:	f8c2 30f8 	str.w	r3, [r2, #248]	@ 0xf8
7010305e:	f44f 5300 	mov.w	r3, #8192	@ 0x2000
70103062:	f7ff ba63 	b.w	7010252c <HAL_RCCEx_PeriphCLKConfig+0xa28>
70103066:	4ba3      	ldr	r3, [pc, #652]	@ (701032f4 <HAL_RCCEx_PeriphCLKConfig+0x17f0>)
70103068:	4298      	cmp	r0, r3
7010306a:	bf02      	ittt	eq
7010306c:	2240      	moveq	r2, #64	@ 0x40
7010306e:	4b9e      	ldreq	r3, [pc, #632]	@ (701032e8 <HAL_RCCEx_PeriphCLKConfig+0x17e4>)
70103070:	f8c3 2a48 	streq.w	r2, [r3, #2632]	@ 0xa48
70103074:	f7ff ba5c 	b.w	70102530 <HAL_RCCEx_PeriphCLKConfig+0xa2c>
70103078:	4b9f      	ldr	r3, [pc, #636]	@ (701032f8 <HAL_RCCEx_PeriphCLKConfig+0x17f4>)
7010307a:	4298      	cmp	r0, r3
7010307c:	d112      	bne.n	701030a4 <HAL_RCCEx_PeriphCLKConfig+0x15a0>
7010307e:	4a9a      	ldr	r2, [pc, #616]	@ (701032e8 <HAL_RCCEx_PeriphCLKConfig+0x17e4>)
70103080:	6ce1      	ldr	r1, [r4, #76]	@ 0x4c
70103082:	f8d2 30e4 	ldr.w	r3, [r2, #228]	@ 0xe4
70103086:	6ca5      	ldr	r5, [r4, #72]	@ 0x48
70103088:	f023 5343 	bic.w	r3, r3, #817889280	@ 0x30c00000
7010308c:	f423 137c 	bic.w	r3, r3, #4128768	@ 0x3f0000
70103090:	3901      	subs	r1, #1
70103092:	432b      	orrs	r3, r5
70103094:	ea43 4301 	orr.w	r3, r3, r1, lsl #16
70103098:	f8c2 30e4 	str.w	r3, [r2, #228]	@ 0xe4
7010309c:	f44f 7380 	mov.w	r3, #256	@ 0x100
701030a0:	f7ff ba60 	b.w	70102564 <HAL_RCCEx_PeriphCLKConfig+0xa60>
701030a4:	4b95      	ldr	r3, [pc, #596]	@ (701032fc <HAL_RCCEx_PeriphCLKConfig+0x17f8>)
701030a6:	4298      	cmp	r0, r3
701030a8:	bf02      	ittt	eq
701030aa:	2240      	moveq	r2, #64	@ 0x40
701030ac:	4b8e      	ldreq	r3, [pc, #568]	@ (701032e8 <HAL_RCCEx_PeriphCLKConfig+0x17e4>)
701030ae:	f8c3 2a48 	streq.w	r2, [r3, #2632]	@ 0xa48
701030b2:	f7ff ba59 	b.w	70102568 <HAL_RCCEx_PeriphCLKConfig+0xa64>
701030b6:	4b92      	ldr	r3, [pc, #584]	@ (70103300 <HAL_RCCEx_PeriphCLKConfig+0x17fc>)
701030b8:	4298      	cmp	r0, r3
701030ba:	d112      	bne.n	701030e2 <HAL_RCCEx_PeriphCLKConfig+0x15de>
701030bc:	4a8a      	ldr	r2, [pc, #552]	@ (701032e8 <HAL_RCCEx_PeriphCLKConfig+0x17e4>)
701030be:	6f61      	ldr	r1, [r4, #116]	@ 0x74
701030c0:	f8d2 30f8 	ldr.w	r3, [r2, #248]	@ 0xf8
701030c4:	6f25      	ldr	r5, [r4, #112]	@ 0x70
701030c6:	f023 5343 	bic.w	r3, r3, #817889280	@ 0x30c00000
701030ca:	f423 137c 	bic.w	r3, r3, #4128768	@ 0x3f0000
701030ce:	3901      	subs	r1, #1
701030d0:	432b      	orrs	r3, r5
701030d2:	ea43 4301 	orr.w	r3, r3, r1, lsl #16
701030d6:	f8c2 30f8 	str.w	r3, [r2, #248]	@ 0xf8
701030da:	f44f 5300 	mov.w	r3, #8192	@ 0x2000
701030de:	f7ff ba5e 	b.w	7010259e <HAL_RCCEx_PeriphCLKConfig+0xa9a>
701030e2:	4b88      	ldr	r3, [pc, #544]	@ (70103304 <HAL_RCCEx_PeriphCLKConfig+0x1800>)
701030e4:	4298      	cmp	r0, r3
701030e6:	bf02      	ittt	eq
701030e8:	2240      	moveq	r2, #64	@ 0x40
701030ea:	4b7f      	ldreq	r3, [pc, #508]	@ (701032e8 <HAL_RCCEx_PeriphCLKConfig+0x17e4>)
701030ec:	f8c3 2a48 	streq.w	r2, [r3, #2632]	@ 0xa48
701030f0:	f7ff ba57 	b.w	701025a2 <HAL_RCCEx_PeriphCLKConfig+0xa9e>
701030f4:	4b84      	ldr	r3, [pc, #528]	@ (70103308 <HAL_RCCEx_PeriphCLKConfig+0x1804>)
701030f6:	4298      	cmp	r0, r3
701030f8:	d112      	bne.n	70103120 <HAL_RCCEx_PeriphCLKConfig+0x161c>
701030fa:	4a7b      	ldr	r2, [pc, #492]	@ (701032e8 <HAL_RCCEx_PeriphCLKConfig+0x17e4>)
701030fc:	6f61      	ldr	r1, [r4, #116]	@ 0x74
701030fe:	f8d2 30f8 	ldr.w	r3, [r2, #248]	@ 0xf8
70103102:	6f25      	ldr	r5, [r4, #112]	@ 0x70
70103104:	f023 5343 	bic.w	r3, r3, #817889280	@ 0x30c00000
70103108:	f423 137c 	bic.w	r3, r3, #4128768	@ 0x3f0000
7010310c:	3901      	subs	r1, #1
7010310e:	432b      	orrs	r3, r5
70103110:	ea43 4301 	orr.w	r3, r3, r1, lsl #16
70103114:	f8c2 30f8 	str.w	r3, [r2, #248]	@ 0xf8
70103118:	f44f 5300 	mov.w	r3, #8192	@ 0x2000
7010311c:	f7ff ba73 	b.w	70102606 <HAL_RCCEx_PeriphCLKConfig+0xb02>
70103120:	4b7a      	ldr	r3, [pc, #488]	@ (7010330c <HAL_RCCEx_PeriphCLKConfig+0x1808>)
70103122:	4298      	cmp	r0, r3
70103124:	bf02      	ittt	eq
70103126:	2240      	moveq	r2, #64	@ 0x40
70103128:	4b6f      	ldreq	r3, [pc, #444]	@ (701032e8 <HAL_RCCEx_PeriphCLKConfig+0x17e4>)
7010312a:	f8c3 2a48 	streq.w	r2, [r3, #2632]	@ 0xa48
7010312e:	f7ff ba6c 	b.w	7010260a <HAL_RCCEx_PeriphCLKConfig+0xb06>
70103132:	4b77      	ldr	r3, [pc, #476]	@ (70103310 <HAL_RCCEx_PeriphCLKConfig+0x180c>)
70103134:	4298      	cmp	r0, r3
70103136:	d112      	bne.n	7010315e <HAL_RCCEx_PeriphCLKConfig+0x165a>
70103138:	4a6b      	ldr	r2, [pc, #428]	@ (701032e8 <HAL_RCCEx_PeriphCLKConfig+0x17e4>)
7010313a:	6f61      	ldr	r1, [r4, #116]	@ 0x74
7010313c:	f8d2 30f8 	ldr.w	r3, [r2, #248]	@ 0xf8
70103140:	6f25      	ldr	r5, [r4, #112]	@ 0x70
70103142:	f023 5343 	bic.w	r3, r3, #817889280	@ 0x30c00000
70103146:	f423 137c 	bic.w	r3, r3, #4128768	@ 0x3f0000
7010314a:	3901      	subs	r1, #1
7010314c:	432b      	orrs	r3, r5
7010314e:	ea43 4301 	orr.w	r3, r3, r1, lsl #16
70103152:	f8c2 30f8 	str.w	r3, [r2, #248]	@ 0xf8
70103156:	f44f 5300 	mov.w	r3, #8192	@ 0x2000
7010315a:	f7ff ba71 	b.w	70102640 <HAL_RCCEx_PeriphCLKConfig+0xb3c>
7010315e:	4b6d      	ldr	r3, [pc, #436]	@ (70103314 <HAL_RCCEx_PeriphCLKConfig+0x1810>)
70103160:	4298      	cmp	r0, r3
70103162:	bf02      	ittt	eq
70103164:	2240      	moveq	r2, #64	@ 0x40
70103166:	4b60      	ldreq	r3, [pc, #384]	@ (701032e8 <HAL_RCCEx_PeriphCLKConfig+0x17e4>)
70103168:	f8c3 2a48 	streq.w	r2, [r3, #2632]	@ 0xa48
7010316c:	f7ff ba6a 	b.w	70102644 <HAL_RCCEx_PeriphCLKConfig+0xb40>
70103170:	4b69      	ldr	r3, [pc, #420]	@ (70103318 <HAL_RCCEx_PeriphCLKConfig+0x1814>)
70103172:	4298      	cmp	r0, r3
70103174:	d112      	bne.n	7010319c <HAL_RCCEx_PeriphCLKConfig+0x1698>
70103176:	4a5c      	ldr	r2, [pc, #368]	@ (701032e8 <HAL_RCCEx_PeriphCLKConfig+0x17e4>)
70103178:	6f61      	ldr	r1, [r4, #116]	@ 0x74
7010317a:	f8d2 30f8 	ldr.w	r3, [r2, #248]	@ 0xf8
7010317e:	6f25      	ldr	r5, [r4, #112]	@ 0x70
70103180:	f023 5343 	bic.w	r3, r3, #817889280	@ 0x30c00000
70103184:	f423 137c 	bic.w	r3, r3, #4128768	@ 0x3f0000
70103188:	3901      	subs	r1, #1
7010318a:	432b      	orrs	r3, r5
7010318c:	ea43 4301 	orr.w	r3, r3, r1, lsl #16
70103190:	f8c2 30f8 	str.w	r3, [r2, #248]	@ 0xf8
70103194:	f44f 5300 	mov.w	r3, #8192	@ 0x2000
70103198:	f7ff ba6f 	b.w	7010267a <HAL_RCCEx_PeriphCLKConfig+0xb76>
7010319c:	4b5f      	ldr	r3, [pc, #380]	@ (7010331c <HAL_RCCEx_PeriphCLKConfig+0x1818>)
7010319e:	4298      	cmp	r0, r3
701031a0:	bf02      	ittt	eq
701031a2:	2240      	moveq	r2, #64	@ 0x40
701031a4:	4b50      	ldreq	r3, [pc, #320]	@ (701032e8 <HAL_RCCEx_PeriphCLKConfig+0x17e4>)
701031a6:	f8c3 2a48 	streq.w	r2, [r3, #2632]	@ 0xa48
701031aa:	f7ff ba68 	b.w	7010267e <HAL_RCCEx_PeriphCLKConfig+0xb7a>
701031ae:	4b5c      	ldr	r3, [pc, #368]	@ (70103320 <HAL_RCCEx_PeriphCLKConfig+0x181c>)
701031b0:	4298      	cmp	r0, r3
701031b2:	d112      	bne.n	701031da <HAL_RCCEx_PeriphCLKConfig+0x16d6>
701031b4:	4a4c      	ldr	r2, [pc, #304]	@ (701032e8 <HAL_RCCEx_PeriphCLKConfig+0x17e4>)
701031b6:	6f61      	ldr	r1, [r4, #116]	@ 0x74
701031b8:	f8d2 30f8 	ldr.w	r3, [r2, #248]	@ 0xf8
701031bc:	6f25      	ldr	r5, [r4, #112]	@ 0x70
701031be:	f023 5343 	bic.w	r3, r3, #817889280	@ 0x30c00000
701031c2:	f423 137c 	bic.w	r3, r3, #4128768	@ 0x3f0000
701031c6:	3901      	subs	r1, #1
701031c8:	432b      	orrs	r3, r5
701031ca:	ea43 4301 	orr.w	r3, r3, r1, lsl #16
701031ce:	f8c2 30f8 	str.w	r3, [r2, #248]	@ 0xf8
701031d2:	f44f 5300 	mov.w	r3, #8192	@ 0x2000
701031d6:	f7ff ba6d 	b.w	701026b4 <HAL_RCCEx_PeriphCLKConfig+0xbb0>
701031da:	4b52      	ldr	r3, [pc, #328]	@ (70103324 <HAL_RCCEx_PeriphCLKConfig+0x1820>)
701031dc:	4298      	cmp	r0, r3
701031de:	bf02      	ittt	eq
701031e0:	2240      	moveq	r2, #64	@ 0x40
701031e2:	4b41      	ldreq	r3, [pc, #260]	@ (701032e8 <HAL_RCCEx_PeriphCLKConfig+0x17e4>)
701031e4:	f8c3 2a48 	streq.w	r2, [r3, #2632]	@ 0xa48
701031e8:	f7ff ba66 	b.w	701026b8 <HAL_RCCEx_PeriphCLKConfig+0xbb4>
701031ec:	4b4e      	ldr	r3, [pc, #312]	@ (70103328 <HAL_RCCEx_PeriphCLKConfig+0x1824>)
701031ee:	4298      	cmp	r0, r3
701031f0:	d112      	bne.n	70103218 <HAL_RCCEx_PeriphCLKConfig+0x1714>
701031f2:	4a3d      	ldr	r2, [pc, #244]	@ (701032e8 <HAL_RCCEx_PeriphCLKConfig+0x17e4>)
701031f4:	6f61      	ldr	r1, [r4, #116]	@ 0x74
701031f6:	f8d2 30f8 	ldr.w	r3, [r2, #248]	@ 0xf8
701031fa:	6f25      	ldr	r5, [r4, #112]	@ 0x70
701031fc:	f023 5343 	bic.w	r3, r3, #817889280	@ 0x30c00000
70103200:	f423 137c 	bic.w	r3, r3, #4128768	@ 0x3f0000
70103204:	3901      	subs	r1, #1
70103206:	432b      	orrs	r3, r5
70103208:	ea43 4301 	orr.w	r3, r3, r1, lsl #16
7010320c:	f8c2 30f8 	str.w	r3, [r2, #248]	@ 0xf8
70103210:	f44f 5300 	mov.w	r3, #8192	@ 0x2000
70103214:	f7ff ba6b 	b.w	701026ee <HAL_RCCEx_PeriphCLKConfig+0xbea>
70103218:	4b44      	ldr	r3, [pc, #272]	@ (7010332c <HAL_RCCEx_PeriphCLKConfig+0x1828>)
7010321a:	4298      	cmp	r0, r3
7010321c:	bf02      	ittt	eq
7010321e:	2240      	moveq	r2, #64	@ 0x40
70103220:	4b31      	ldreq	r3, [pc, #196]	@ (701032e8 <HAL_RCCEx_PeriphCLKConfig+0x17e4>)
70103222:	f8c3 2a48 	streq.w	r2, [r3, #2632]	@ 0xa48
70103226:	f7ff ba64 	b.w	701026f2 <HAL_RCCEx_PeriphCLKConfig+0xbee>
7010322a:	4b41      	ldr	r3, [pc, #260]	@ (70103330 <HAL_RCCEx_PeriphCLKConfig+0x182c>)
7010322c:	4298      	cmp	r0, r3
7010322e:	d112      	bne.n	70103256 <HAL_RCCEx_PeriphCLKConfig+0x1752>
70103230:	4a2d      	ldr	r2, [pc, #180]	@ (701032e8 <HAL_RCCEx_PeriphCLKConfig+0x17e4>)
70103232:	6f61      	ldr	r1, [r4, #116]	@ 0x74
70103234:	f8d2 30f8 	ldr.w	r3, [r2, #248]	@ 0xf8
70103238:	6f25      	ldr	r5, [r4, #112]	@ 0x70
7010323a:	f023 5343 	bic.w	r3, r3, #817889280	@ 0x30c00000
7010323e:	f423 137c 	bic.w	r3, r3, #4128768	@ 0x3f0000
70103242:	3901      	subs	r1, #1
70103244:	432b      	orrs	r3, r5
70103246:	ea43 4301 	orr.w	r3, r3, r1, lsl #16
7010324a:	f8c2 30f8 	str.w	r3, [r2, #248]	@ 0xf8
7010324e:	f44f 5300 	mov.w	r3, #8192	@ 0x2000
70103252:	f7ff ba69 	b.w	70102728 <HAL_RCCEx_PeriphCLKConfig+0xc24>
70103256:	4b37      	ldr	r3, [pc, #220]	@ (70103334 <HAL_RCCEx_PeriphCLKConfig+0x1830>)
70103258:	4298      	cmp	r0, r3
7010325a:	bf02      	ittt	eq
7010325c:	2240      	moveq	r2, #64	@ 0x40
7010325e:	4b22      	ldreq	r3, [pc, #136]	@ (701032e8 <HAL_RCCEx_PeriphCLKConfig+0x17e4>)
70103260:	f8c3 2a48 	streq.w	r2, [r3, #2632]	@ 0xa48
70103264:	f7ff ba62 	b.w	7010272c <HAL_RCCEx_PeriphCLKConfig+0xc28>
70103268:	4b33      	ldr	r3, [pc, #204]	@ (70103338 <HAL_RCCEx_PeriphCLKConfig+0x1834>)
7010326a:	4298      	cmp	r0, r3
7010326c:	d112      	bne.n	70103294 <HAL_RCCEx_PeriphCLKConfig+0x1790>
7010326e:	4a1e      	ldr	r2, [pc, #120]	@ (701032e8 <HAL_RCCEx_PeriphCLKConfig+0x17e4>)
70103270:	6f61      	ldr	r1, [r4, #116]	@ 0x74
70103272:	f8d2 30f8 	ldr.w	r3, [r2, #248]	@ 0xf8
70103276:	6f25      	ldr	r5, [r4, #112]	@ 0x70
70103278:	f023 5343 	bic.w	r3, r3, #817889280	@ 0x30c00000
7010327c:	f423 137c 	bic.w	r3, r3, #4128768	@ 0x3f0000
70103280:	3901      	subs	r1, #1
70103282:	432b      	orrs	r3, r5
70103284:	ea43 4301 	orr.w	r3, r3, r1, lsl #16
70103288:	f8c2 30f8 	str.w	r3, [r2, #248]	@ 0xf8
7010328c:	f44f 5300 	mov.w	r3, #8192	@ 0x2000
70103290:	f7ff ba67 	b.w	70102762 <HAL_RCCEx_PeriphCLKConfig+0xc5e>
70103294:	4b29      	ldr	r3, [pc, #164]	@ (7010333c <HAL_RCCEx_PeriphCLKConfig+0x1838>)
70103296:	4298      	cmp	r0, r3
70103298:	bf02      	ittt	eq
7010329a:	2240      	moveq	r2, #64	@ 0x40
7010329c:	4b12      	ldreq	r3, [pc, #72]	@ (701032e8 <HAL_RCCEx_PeriphCLKConfig+0x17e4>)
7010329e:	f8c3 2a48 	streq.w	r2, [r3, #2632]	@ 0xa48
701032a2:	f7ff ba60 	b.w	70102766 <HAL_RCCEx_PeriphCLKConfig+0xc62>
701032a6:	4b26      	ldr	r3, [pc, #152]	@ (70103340 <HAL_RCCEx_PeriphCLKConfig+0x183c>)
701032a8:	4298      	cmp	r0, r3
701032aa:	d112      	bne.n	701032d2 <HAL_RCCEx_PeriphCLKConfig+0x17ce>
701032ac:	4a0e      	ldr	r2, [pc, #56]	@ (701032e8 <HAL_RCCEx_PeriphCLKConfig+0x17e4>)
701032ae:	6f61      	ldr	r1, [r4, #116]	@ 0x74
701032b0:	f8d2 30f8 	ldr.w	r3, [r2, #248]	@ 0xf8
701032b4:	6f25      	ldr	r5, [r4, #112]	@ 0x70
701032b6:	f023 5343 	bic.w	r3, r3, #817889280	@ 0x30c00000
701032ba:	f423 137c 	bic.w	r3, r3, #4128768	@ 0x3f0000
701032be:	3901      	subs	r1, #1
701032c0:	432b      	orrs	r3, r5
701032c2:	ea43 4301 	orr.w	r3, r3, r1, lsl #16
701032c6:	f8c2 30f8 	str.w	r3, [r2, #248]	@ 0xf8
701032ca:	f44f 5300 	mov.w	r3, #8192	@ 0x2000
701032ce:	f7ff ba65 	b.w	7010279c <HAL_RCCEx_PeriphCLKConfig+0xc98>
701032d2:	4b1c      	ldr	r3, [pc, #112]	@ (70103344 <HAL_RCCEx_PeriphCLKConfig+0x1840>)
701032d4:	4298      	cmp	r0, r3
701032d6:	bf02      	ittt	eq
701032d8:	2240      	moveq	r2, #64	@ 0x40
701032da:	4b03      	ldreq	r3, [pc, #12]	@ (701032e8 <HAL_RCCEx_PeriphCLKConfig+0x17e4>)
701032dc:	f8c3 2a48 	streq.w	r2, [r3, #2632]	@ 0xa48
701032e0:	f7ff ba5e 	b.w	701027a0 <HAL_RCCEx_PeriphCLKConfig+0xc9c>
701032e4:	07031020 	.word	0x07031020
701032e8:	56028000 	.word	0x56028000
701032ec:	07011020 	.word	0x07011020
701032f0:	07031420 	.word	0x07031420
701032f4:	07011420 	.word	0x07011420
701032f8:	07031820 	.word	0x07031820
701032fc:	07011820 	.word	0x07011820
70103300:	07030030 	.word	0x07030030
70103304:	07010030 	.word	0x07010030
70103308:	07030430 	.word	0x07030430
7010330c:	07010430 	.word	0x07010430
70103310:	07030830 	.word	0x07030830
70103314:	07010830 	.word	0x07010830
70103318:	07030c30 	.word	0x07030c30
7010331c:	07010c30 	.word	0x07010c30
70103320:	07031030 	.word	0x07031030
70103324:	07011030 	.word	0x07011030
70103328:	07031430 	.word	0x07031430
7010332c:	07011430 	.word	0x07011430
70103330:	07031830 	.word	0x07031830
70103334:	07011830 	.word	0x07011830
70103338:	07031c30 	.word	0x07031c30
7010333c:	07011c30 	.word	0x07011c30
70103340:	07030034 	.word	0x07030034
70103344:	07010034 	.word	0x07010034
70103348:	4b20      	ldr	r3, [pc, #128]	@ (701033cc <HAL_RCCEx_PeriphCLKConfig+0x18c8>)
7010334a:	4298      	cmp	r0, r3
7010334c:	d112      	bne.n	70103374 <HAL_RCCEx_PeriphCLKConfig+0x1870>
7010334e:	4a20      	ldr	r2, [pc, #128]	@ (701033d0 <HAL_RCCEx_PeriphCLKConfig+0x18cc>)
70103350:	6f61      	ldr	r1, [r4, #116]	@ 0x74
70103352:	f8d2 30f8 	ldr.w	r3, [r2, #248]	@ 0xf8
70103356:	6f25      	ldr	r5, [r4, #112]	@ 0x70
70103358:	f023 5343 	bic.w	r3, r3, #817889280	@ 0x30c00000
7010335c:	f423 137c 	bic.w	r3, r3, #4128768	@ 0x3f0000
70103360:	3901      	subs	r1, #1
70103362:	432b      	orrs	r3, r5
70103364:	ea43 4301 	orr.w	r3, r3, r1, lsl #16
70103368:	f8c2 30f8 	str.w	r3, [r2, #248]	@ 0xf8
7010336c:	f44f 5300 	mov.w	r3, #8192	@ 0x2000
70103370:	f7ff ba31 	b.w	701027d6 <HAL_RCCEx_PeriphCLKConfig+0xcd2>
70103374:	4b17      	ldr	r3, [pc, #92]	@ (701033d4 <HAL_RCCEx_PeriphCLKConfig+0x18d0>)
70103376:	4298      	cmp	r0, r3
70103378:	bf02      	ittt	eq
7010337a:	2240      	moveq	r2, #64	@ 0x40
7010337c:	4b14      	ldreq	r3, [pc, #80]	@ (701033d0 <HAL_RCCEx_PeriphCLKConfig+0x18cc>)
7010337e:	f8c3 2a48 	streq.w	r2, [r3, #2632]	@ 0xa48
70103382:	f7ff ba2a 	b.w	701027da <HAL_RCCEx_PeriphCLKConfig+0xcd6>
70103386:	f7fe fb93 	bl	70101ab0 <LL_RCC_HSE_SelectHSEAsDiv2Clock>
7010338a:	f7ff ba37 	b.w	701027fc <HAL_RCCEx_PeriphCLKConfig+0xcf8>
7010338e:	f7fe fb8f 	bl	70101ab0 <LL_RCC_HSE_SelectHSEAsDiv2Clock>
70103392:	f7ff ba42 	b.w	7010281a <HAL_RCCEx_PeriphCLKConfig+0xd16>
70103396:	4b10      	ldr	r3, [pc, #64]	@ (701033d8 <HAL_RCCEx_PeriphCLKConfig+0x18d4>)
70103398:	4298      	cmp	r0, r3
7010339a:	bf02      	ittt	eq
7010339c:	2240      	moveq	r2, #64	@ 0x40
7010339e:	4b0c      	ldreq	r3, [pc, #48]	@ (701033d0 <HAL_RCCEx_PeriphCLKConfig+0x18cc>)
701033a0:	f8c3 2a48 	streq.w	r2, [r3, #2632]	@ 0xa48
701033a4:	f7ff ba54 	b.w	70102850 <HAL_RCCEx_PeriphCLKConfig+0xd4c>
701033a8:	f7fe fb82 	bl	70101ab0 <LL_RCC_HSE_SelectHSEAsDiv2Clock>
701033ac:	f7ff ba5b 	b.w	70102866 <HAL_RCCEx_PeriphCLKConfig+0xd62>
701033b0:	4b0a      	ldr	r3, [pc, #40]	@ (701033dc <HAL_RCCEx_PeriphCLKConfig+0x18d8>)
701033b2:	4298      	cmp	r0, r3
701033b4:	bf02      	ittt	eq
701033b6:	2240      	moveq	r2, #64	@ 0x40
701033b8:	4b05      	ldreq	r3, [pc, #20]	@ (701033d0 <HAL_RCCEx_PeriphCLKConfig+0x18cc>)
701033ba:	f8c3 2a48 	streq.w	r2, [r3, #2632]	@ 0xa48
701033be:	f7ff ba6d 	b.w	7010289c <HAL_RCCEx_PeriphCLKConfig+0xd98>
701033c2:	f7fe fb75 	bl	70101ab0 <LL_RCC_HSE_SelectHSEAsDiv2Clock>
701033c6:	f7ff ba74 	b.w	701028b2 <HAL_RCCEx_PeriphCLKConfig+0xdae>
701033ca:	bf00      	nop
701033cc:	07030434 	.word	0x07030434
701033d0:	56028000 	.word	0x56028000
701033d4:	07010434 	.word	0x07010434
701033d8:	03010c14 	.word	0x03010c14
701033dc:	03011414 	.word	0x03011414

701033e0 <TIM_OC1_SetConfig>:
701033e0:	6a03      	ldr	r3, [r0, #32]
701033e2:	6a02      	ldr	r2, [r0, #32]
701033e4:	b570      	push	{r4, r5, r6, lr}
701033e6:	f022 0201 	bic.w	r2, r2, #1
701033ea:	6202      	str	r2, [r0, #32]
701033ec:	6844      	ldr	r4, [r0, #4]
701033ee:	6982      	ldr	r2, [r0, #24]
701033f0:	680d      	ldr	r5, [r1, #0]
701033f2:	f422 3280 	bic.w	r2, r2, #65536	@ 0x10000
701033f6:	f022 0273 	bic.w	r2, r2, #115	@ 0x73
701033fa:	432a      	orrs	r2, r5
701033fc:	688d      	ldr	r5, [r1, #8]
701033fe:	f023 0302 	bic.w	r3, r3, #2
70103402:	f1b0 4fa4 	cmp.w	r0, #1375731712	@ 0x52000000
70103406:	ea43 0305 	orr.w	r3, r3, r5
7010340a:	d01e      	beq.n	7010344a <TIM_OC1_SetConfig+0x6a>
7010340c:	f1b0 4f84 	cmp.w	r0, #1107296256	@ 0x42000000
70103410:	d01b      	beq.n	7010344a <TIM_OC1_SetConfig+0x6a>
70103412:	4d17      	ldr	r5, [pc, #92]	@ (70103470 <TIM_OC1_SetConfig+0x90>)
70103414:	42a8      	cmp	r0, r5
70103416:	d018      	beq.n	7010344a <TIM_OC1_SetConfig+0x6a>
70103418:	f105 4570 	add.w	r5, r5, #4026531840	@ 0xf0000000
7010341c:	42a8      	cmp	r0, r5
7010341e:	d014      	beq.n	7010344a <TIM_OC1_SetConfig+0x6a>
70103420:	4d14      	ldr	r5, [pc, #80]	@ (70103474 <TIM_OC1_SetConfig+0x94>)
70103422:	42a8      	cmp	r0, r5
70103424:	d011      	beq.n	7010344a <TIM_OC1_SetConfig+0x6a>
70103426:	f105 4570 	add.w	r5, r5, #4026531840	@ 0xf0000000
7010342a:	42a8      	cmp	r0, r5
7010342c:	d00d      	beq.n	7010344a <TIM_OC1_SetConfig+0x6a>
7010342e:	4d12      	ldr	r5, [pc, #72]	@ (70103478 <TIM_OC1_SetConfig+0x98>)
70103430:	42a8      	cmp	r0, r5
70103432:	d00a      	beq.n	7010344a <TIM_OC1_SetConfig+0x6a>
70103434:	f105 4570 	add.w	r5, r5, #4026531840	@ 0xf0000000
70103438:	42a8      	cmp	r0, r5
7010343a:	d006      	beq.n	7010344a <TIM_OC1_SetConfig+0x6a>
7010343c:	4d0f      	ldr	r5, [pc, #60]	@ (7010347c <TIM_OC1_SetConfig+0x9c>)
7010343e:	42a8      	cmp	r0, r5
70103440:	d003      	beq.n	7010344a <TIM_OC1_SetConfig+0x6a>
70103442:	f105 4570 	add.w	r5, r5, #4026531840	@ 0xf0000000
70103446:	42a8      	cmp	r0, r5
70103448:	d10b      	bne.n	70103462 <TIM_OC1_SetConfig+0x82>
7010344a:	68cd      	ldr	r5, [r1, #12]
7010344c:	f023 0308 	bic.w	r3, r3, #8
70103450:	432b      	orrs	r3, r5
70103452:	f424 7540 	bic.w	r5, r4, #768	@ 0x300
70103456:	e9d1 4605 	ldrd	r4, r6, [r1, #20]
7010345a:	4334      	orrs	r4, r6
7010345c:	f023 0304 	bic.w	r3, r3, #4
70103460:	432c      	orrs	r4, r5
70103462:	6044      	str	r4, [r0, #4]
70103464:	6182      	str	r2, [r0, #24]
70103466:	684a      	ldr	r2, [r1, #4]
70103468:	6342      	str	r2, [r0, #52]	@ 0x34
7010346a:	6203      	str	r3, [r0, #32]
7010346c:	bd70      	pop	{r4, r5, r6, pc}
7010346e:	bf00      	nop
70103470:	52000400 	.word	0x52000400
70103474:	52004000 	.word	0x52004000
70103478:	52004400 	.word	0x52004400
7010347c:	52004800 	.word	0x52004800

70103480 <TIM_OC3_SetConfig>:
70103480:	6a03      	ldr	r3, [r0, #32]
70103482:	6a02      	ldr	r2, [r0, #32]
70103484:	b570      	push	{r4, r5, r6, lr}
70103486:	f422 7280 	bic.w	r2, r2, #256	@ 0x100
7010348a:	6202      	str	r2, [r0, #32]
7010348c:	6844      	ldr	r4, [r0, #4]
7010348e:	69c2      	ldr	r2, [r0, #28]
70103490:	680d      	ldr	r5, [r1, #0]
70103492:	f422 3280 	bic.w	r2, r2, #65536	@ 0x10000
70103496:	f022 0273 	bic.w	r2, r2, #115	@ 0x73
7010349a:	432a      	orrs	r2, r5
7010349c:	688d      	ldr	r5, [r1, #8]
7010349e:	f423 7300 	bic.w	r3, r3, #512	@ 0x200
701034a2:	f1b0 4fa4 	cmp.w	r0, #1375731712	@ 0x52000000
701034a6:	ea43 2305 	orr.w	r3, r3, r5, lsl #8
701034aa:	d009      	beq.n	701034c0 <TIM_OC3_SetConfig+0x40>
701034ac:	f1b0 4f84 	cmp.w	r0, #1107296256	@ 0x42000000
701034b0:	d006      	beq.n	701034c0 <TIM_OC3_SetConfig+0x40>
701034b2:	4d18      	ldr	r5, [pc, #96]	@ (70103514 <TIM_OC3_SetConfig+0x94>)
701034b4:	42a8      	cmp	r0, r5
701034b6:	d003      	beq.n	701034c0 <TIM_OC3_SetConfig+0x40>
701034b8:	f105 4570 	add.w	r5, r5, #4026531840	@ 0xf0000000
701034bc:	42a8      	cmp	r0, r5
701034be:	d10e      	bne.n	701034de <TIM_OC3_SetConfig+0x5e>
701034c0:	68cd      	ldr	r5, [r1, #12]
701034c2:	f423 6300 	bic.w	r3, r3, #2048	@ 0x800
701034c6:	ea43 2305 	orr.w	r3, r3, r5, lsl #8
701034ca:	f423 6380 	bic.w	r3, r3, #1024	@ 0x400
701034ce:	f424 5540 	bic.w	r5, r4, #12288	@ 0x3000
701034d2:	e9d1 4605 	ldrd	r4, r6, [r1, #20]
701034d6:	4334      	orrs	r4, r6
701034d8:	ea45 1404 	orr.w	r4, r5, r4, lsl #4
701034dc:	e014      	b.n	70103508 <TIM_OC3_SetConfig+0x88>
701034de:	4d0e      	ldr	r5, [pc, #56]	@ (70103518 <TIM_OC3_SetConfig+0x98>)
701034e0:	42a8      	cmp	r0, r5
701034e2:	d0f4      	beq.n	701034ce <TIM_OC3_SetConfig+0x4e>
701034e4:	f105 4570 	add.w	r5, r5, #4026531840	@ 0xf0000000
701034e8:	42a8      	cmp	r0, r5
701034ea:	d0f0      	beq.n	701034ce <TIM_OC3_SetConfig+0x4e>
701034ec:	4d0b      	ldr	r5, [pc, #44]	@ (7010351c <TIM_OC3_SetConfig+0x9c>)
701034ee:	42a8      	cmp	r0, r5
701034f0:	d0ed      	beq.n	701034ce <TIM_OC3_SetConfig+0x4e>
701034f2:	f105 4570 	add.w	r5, r5, #4026531840	@ 0xf0000000
701034f6:	42a8      	cmp	r0, r5
701034f8:	d0e9      	beq.n	701034ce <TIM_OC3_SetConfig+0x4e>
701034fa:	4d09      	ldr	r5, [pc, #36]	@ (70103520 <TIM_OC3_SetConfig+0xa0>)
701034fc:	42a8      	cmp	r0, r5
701034fe:	d0e6      	beq.n	701034ce <TIM_OC3_SetConfig+0x4e>
70103500:	f105 4570 	add.w	r5, r5, #4026531840	@ 0xf0000000
70103504:	42a8      	cmp	r0, r5
70103506:	d0e2      	beq.n	701034ce <TIM_OC3_SetConfig+0x4e>
70103508:	6044      	str	r4, [r0, #4]
7010350a:	61c2      	str	r2, [r0, #28]
7010350c:	684a      	ldr	r2, [r1, #4]
7010350e:	63c2      	str	r2, [r0, #60]	@ 0x3c
70103510:	6203      	str	r3, [r0, #32]
70103512:	bd70      	pop	{r4, r5, r6, pc}
70103514:	52000400 	.word	0x52000400
70103518:	52004000 	.word	0x52004000
7010351c:	52004400 	.word	0x52004400
70103520:	52004800 	.word	0x52004800

70103524 <TIM_OC4_SetConfig>:
70103524:	6a03      	ldr	r3, [r0, #32]
70103526:	6a02      	ldr	r2, [r0, #32]
70103528:	b570      	push	{r4, r5, r6, lr}
7010352a:	f422 5280 	bic.w	r2, r2, #4096	@ 0x1000
7010352e:	6202      	str	r2, [r0, #32]
70103530:	6844      	ldr	r4, [r0, #4]
70103532:	69c2      	ldr	r2, [r0, #28]
70103534:	680d      	ldr	r5, [r1, #0]
70103536:	f022 7280 	bic.w	r2, r2, #16777216	@ 0x1000000
7010353a:	f422 42e6 	bic.w	r2, r2, #29440	@ 0x7300
7010353e:	ea42 2205 	orr.w	r2, r2, r5, lsl #8
70103542:	688d      	ldr	r5, [r1, #8]
70103544:	f423 5300 	bic.w	r3, r3, #8192	@ 0x2000
70103548:	f1b0 4fa4 	cmp.w	r0, #1375731712	@ 0x52000000
7010354c:	ea43 3305 	orr.w	r3, r3, r5, lsl #12
70103550:	d009      	beq.n	70103566 <TIM_OC4_SetConfig+0x42>
70103552:	f1b0 4f84 	cmp.w	r0, #1107296256	@ 0x42000000
70103556:	d006      	beq.n	70103566 <TIM_OC4_SetConfig+0x42>
70103558:	4d18      	ldr	r5, [pc, #96]	@ (701035bc <TIM_OC4_SetConfig+0x98>)
7010355a:	42a8      	cmp	r0, r5
7010355c:	d003      	beq.n	70103566 <TIM_OC4_SetConfig+0x42>
7010355e:	f105 4570 	add.w	r5, r5, #4026531840	@ 0xf0000000
70103562:	42a8      	cmp	r0, r5
70103564:	d10e      	bne.n	70103584 <TIM_OC4_SetConfig+0x60>
70103566:	68cd      	ldr	r5, [r1, #12]
70103568:	f423 4300 	bic.w	r3, r3, #32768	@ 0x8000
7010356c:	ea43 3305 	orr.w	r3, r3, r5, lsl #12
70103570:	f423 4380 	bic.w	r3, r3, #16384	@ 0x4000
70103574:	f424 4540 	bic.w	r5, r4, #49152	@ 0xc000
70103578:	e9d1 4605 	ldrd	r4, r6, [r1, #20]
7010357c:	4334      	orrs	r4, r6
7010357e:	ea45 1484 	orr.w	r4, r5, r4, lsl #6
70103582:	e014      	b.n	701035ae <TIM_OC4_SetConfig+0x8a>
70103584:	4d0e      	ldr	r5, [pc, #56]	@ (701035c0 <TIM_OC4_SetConfig+0x9c>)
70103586:	42a8      	cmp	r0, r5
70103588:	d0f4      	beq.n	70103574 <TIM_OC4_SetConfig+0x50>
7010358a:	f105 4570 	add.w	r5, r5, #4026531840	@ 0xf0000000
7010358e:	42a8      	cmp	r0, r5
70103590:	d0f0      	beq.n	70103574 <TIM_OC4_SetConfig+0x50>
70103592:	4d0c      	ldr	r5, [pc, #48]	@ (701035c4 <TIM_OC4_SetConfig+0xa0>)
70103594:	42a8      	cmp	r0, r5
70103596:	d0ed      	beq.n	70103574 <TIM_OC4_SetConfig+0x50>
70103598:	f105 4570 	add.w	r5, r5, #4026531840	@ 0xf0000000
7010359c:	42a8      	cmp	r0, r5
7010359e:	d0e9      	beq.n	70103574 <TIM_OC4_SetConfig+0x50>
701035a0:	4d09      	ldr	r5, [pc, #36]	@ (701035c8 <TIM_OC4_SetConfig+0xa4>)
701035a2:	42a8      	cmp	r0, r5
701035a4:	d0e6      	beq.n	70103574 <TIM_OC4_SetConfig+0x50>
701035a6:	f105 4570 	add.w	r5, r5, #4026531840	@ 0xf0000000
701035aa:	42a8      	cmp	r0, r5
701035ac:	d0e2      	beq.n	70103574 <TIM_OC4_SetConfig+0x50>
701035ae:	6044      	str	r4, [r0, #4]
701035b0:	61c2      	str	r2, [r0, #28]
701035b2:	684a      	ldr	r2, [r1, #4]
701035b4:	6402      	str	r2, [r0, #64]	@ 0x40
701035b6:	6203      	str	r3, [r0, #32]
701035b8:	bd70      	pop	{r4, r5, r6, pc}
701035ba:	bf00      	nop
701035bc:	52000400 	.word	0x52000400
701035c0:	52004000 	.word	0x52004000
701035c4:	52004400 	.word	0x52004400
701035c8:	52004800 	.word	0x52004800

701035cc <TIM_OC5_SetConfig>:
701035cc:	6a03      	ldr	r3, [r0, #32]
701035ce:	6a02      	ldr	r2, [r0, #32]
701035d0:	b530      	push	{r4, r5, lr}
701035d2:	f422 3280 	bic.w	r2, r2, #65536	@ 0x10000
701035d6:	6202      	str	r2, [r0, #32]
701035d8:	6844      	ldr	r4, [r0, #4]
701035da:	6d02      	ldr	r2, [r0, #80]	@ 0x50
701035dc:	680d      	ldr	r5, [r1, #0]
701035de:	f422 3280 	bic.w	r2, r2, #65536	@ 0x10000
701035e2:	f022 0270 	bic.w	r2, r2, #112	@ 0x70
701035e6:	432a      	orrs	r2, r5
701035e8:	688d      	ldr	r5, [r1, #8]
701035ea:	f423 3300 	bic.w	r3, r3, #131072	@ 0x20000
701035ee:	f1b0 4fa4 	cmp.w	r0, #1375731712	@ 0x52000000
701035f2:	ea43 4305 	orr.w	r3, r3, r5, lsl #16
701035f6:	d01e      	beq.n	70103636 <TIM_OC5_SetConfig+0x6a>
701035f8:	f1b0 4f84 	cmp.w	r0, #1107296256	@ 0x42000000
701035fc:	d01b      	beq.n	70103636 <TIM_OC5_SetConfig+0x6a>
701035fe:	4d13      	ldr	r5, [pc, #76]	@ (7010364c <TIM_OC5_SetConfig+0x80>)
70103600:	42a8      	cmp	r0, r5
70103602:	d018      	beq.n	70103636 <TIM_OC5_SetConfig+0x6a>
70103604:	f105 4570 	add.w	r5, r5, #4026531840	@ 0xf0000000
70103608:	42a8      	cmp	r0, r5
7010360a:	d014      	beq.n	70103636 <TIM_OC5_SetConfig+0x6a>
7010360c:	4d10      	ldr	r5, [pc, #64]	@ (70103650 <TIM_OC5_SetConfig+0x84>)
7010360e:	42a8      	cmp	r0, r5
70103610:	d011      	beq.n	70103636 <TIM_OC5_SetConfig+0x6a>
70103612:	f105 4570 	add.w	r5, r5, #4026531840	@ 0xf0000000
70103616:	42a8      	cmp	r0, r5
70103618:	d00d      	beq.n	70103636 <TIM_OC5_SetConfig+0x6a>
7010361a:	4d0e      	ldr	r5, [pc, #56]	@ (70103654 <TIM_OC5_SetConfig+0x88>)
7010361c:	42a8      	cmp	r0, r5
7010361e:	d00a      	beq.n	70103636 <TIM_OC5_SetConfig+0x6a>
70103620:	f105 4570 	add.w	r5, r5, #4026531840	@ 0xf0000000
70103624:	42a8      	cmp	r0, r5
70103626:	d006      	beq.n	70103636 <TIM_OC5_SetConfig+0x6a>
70103628:	4d0b      	ldr	r5, [pc, #44]	@ (70103658 <TIM_OC5_SetConfig+0x8c>)
7010362a:	42a8      	cmp	r0, r5
7010362c:	d003      	beq.n	70103636 <TIM_OC5_SetConfig+0x6a>
7010362e:	f105 4570 	add.w	r5, r5, #4026531840	@ 0xf0000000
70103632:	42a8      	cmp	r0, r5
70103634:	d104      	bne.n	70103640 <TIM_OC5_SetConfig+0x74>
70103636:	694d      	ldr	r5, [r1, #20]
70103638:	f424 3480 	bic.w	r4, r4, #65536	@ 0x10000
7010363c:	ea44 2405 	orr.w	r4, r4, r5, lsl #8
70103640:	6044      	str	r4, [r0, #4]
70103642:	6502      	str	r2, [r0, #80]	@ 0x50
70103644:	684a      	ldr	r2, [r1, #4]
70103646:	6482      	str	r2, [r0, #72]	@ 0x48
70103648:	6203      	str	r3, [r0, #32]
7010364a:	bd30      	pop	{r4, r5, pc}
7010364c:	52000400 	.word	0x52000400
70103650:	52004000 	.word	0x52004000
70103654:	52004400 	.word	0x52004400
70103658:	52004800 	.word	0x52004800

7010365c <TIM_OC6_SetConfig>:
7010365c:	6a03      	ldr	r3, [r0, #32]
7010365e:	6a02      	ldr	r2, [r0, #32]
70103660:	b530      	push	{r4, r5, lr}
70103662:	f422 1280 	bic.w	r2, r2, #1048576	@ 0x100000
70103666:	6202      	str	r2, [r0, #32]
70103668:	6844      	ldr	r4, [r0, #4]
7010366a:	6d02      	ldr	r2, [r0, #80]	@ 0x50
7010366c:	680d      	ldr	r5, [r1, #0]
7010366e:	f022 7280 	bic.w	r2, r2, #16777216	@ 0x1000000
70103672:	f422 42e0 	bic.w	r2, r2, #28672	@ 0x7000
70103676:	ea42 2205 	orr.w	r2, r2, r5, lsl #8
7010367a:	688d      	ldr	r5, [r1, #8]
7010367c:	f423 1300 	bic.w	r3, r3, #2097152	@ 0x200000
70103680:	f1b0 4fa4 	cmp.w	r0, #1375731712	@ 0x52000000
70103684:	ea43 5305 	orr.w	r3, r3, r5, lsl #20
70103688:	d01e      	beq.n	701036c8 <TIM_OC6_SetConfig+0x6c>
7010368a:	f1b0 4f84 	cmp.w	r0, #1107296256	@ 0x42000000
7010368e:	d01b      	beq.n	701036c8 <TIM_OC6_SetConfig+0x6c>
70103690:	4d13      	ldr	r5, [pc, #76]	@ (701036e0 <TIM_OC6_SetConfig+0x84>)
70103692:	42a8      	cmp	r0, r5
70103694:	d018      	beq.n	701036c8 <TIM_OC6_SetConfig+0x6c>
70103696:	f105 4570 	add.w	r5, r5, #4026531840	@ 0xf0000000
7010369a:	42a8      	cmp	r0, r5
7010369c:	d014      	beq.n	701036c8 <TIM_OC6_SetConfig+0x6c>
7010369e:	4d11      	ldr	r5, [pc, #68]	@ (701036e4 <TIM_OC6_SetConfig+0x88>)
701036a0:	42a8      	cmp	r0, r5
701036a2:	d011      	beq.n	701036c8 <TIM_OC6_SetConfig+0x6c>
701036a4:	f105 4570 	add.w	r5, r5, #4026531840	@ 0xf0000000
701036a8:	42a8      	cmp	r0, r5
701036aa:	d00d      	beq.n	701036c8 <TIM_OC6_SetConfig+0x6c>
701036ac:	4d0e      	ldr	r5, [pc, #56]	@ (701036e8 <TIM_OC6_SetConfig+0x8c>)
701036ae:	42a8      	cmp	r0, r5
701036b0:	d00a      	beq.n	701036c8 <TIM_OC6_SetConfig+0x6c>
701036b2:	f105 4570 	add.w	r5, r5, #4026531840	@ 0xf0000000
701036b6:	42a8      	cmp	r0, r5
701036b8:	d006      	beq.n	701036c8 <TIM_OC6_SetConfig+0x6c>
701036ba:	4d0c      	ldr	r5, [pc, #48]	@ (701036ec <TIM_OC6_SetConfig+0x90>)
701036bc:	42a8      	cmp	r0, r5
701036be:	d003      	beq.n	701036c8 <TIM_OC6_SetConfig+0x6c>
701036c0:	f105 4570 	add.w	r5, r5, #4026531840	@ 0xf0000000
701036c4:	42a8      	cmp	r0, r5
701036c6:	d104      	bne.n	701036d2 <TIM_OC6_SetConfig+0x76>
701036c8:	694d      	ldr	r5, [r1, #20]
701036ca:	f424 2480 	bic.w	r4, r4, #262144	@ 0x40000
701036ce:	ea44 2485 	orr.w	r4, r4, r5, lsl #10
701036d2:	6044      	str	r4, [r0, #4]
701036d4:	6502      	str	r2, [r0, #80]	@ 0x50
701036d6:	684a      	ldr	r2, [r1, #4]
701036d8:	64c2      	str	r2, [r0, #76]	@ 0x4c
701036da:	6203      	str	r3, [r0, #32]
701036dc:	bd30      	pop	{r4, r5, pc}
701036de:	bf00      	nop
701036e0:	52000400 	.word	0x52000400
701036e4:	52004000 	.word	0x52004000
701036e8:	52004400 	.word	0x52004400
701036ec:	52004800 	.word	0x52004800

701036f0 <TIM_Base_SetConfig>:
701036f0:	f1b0 4fa4 	cmp.w	r0, #1375731712	@ 0x52000000
701036f4:	6803      	ldr	r3, [r0, #0]
701036f6:	d024      	beq.n	70103742 <TIM_Base_SetConfig+0x52>
701036f8:	f1b0 4f84 	cmp.w	r0, #1107296256	@ 0x42000000
701036fc:	d021      	beq.n	70103742 <TIM_Base_SetConfig+0x52>
701036fe:	f1b0 4fa0 	cmp.w	r0, #1342177280	@ 0x50000000
70103702:	d01e      	beq.n	70103742 <TIM_Base_SetConfig+0x52>
70103704:	f1b0 4f80 	cmp.w	r0, #1073741824	@ 0x40000000
70103708:	d01b      	beq.n	70103742 <TIM_Base_SetConfig+0x52>
7010370a:	4a3f      	ldr	r2, [pc, #252]	@ (70103808 <TIM_Base_SetConfig+0x118>)
7010370c:	4290      	cmp	r0, r2
7010370e:	d018      	beq.n	70103742 <TIM_Base_SetConfig+0x52>
70103710:	f102 4270 	add.w	r2, r2, #4026531840	@ 0xf0000000
70103714:	4290      	cmp	r0, r2
70103716:	d014      	beq.n	70103742 <TIM_Base_SetConfig+0x52>
70103718:	4a3c      	ldr	r2, [pc, #240]	@ (7010380c <TIM_Base_SetConfig+0x11c>)
7010371a:	4290      	cmp	r0, r2
7010371c:	d011      	beq.n	70103742 <TIM_Base_SetConfig+0x52>
7010371e:	f102 4270 	add.w	r2, r2, #4026531840	@ 0xf0000000
70103722:	4290      	cmp	r0, r2
70103724:	d00d      	beq.n	70103742 <TIM_Base_SetConfig+0x52>
70103726:	4a3a      	ldr	r2, [pc, #232]	@ (70103810 <TIM_Base_SetConfig+0x120>)
70103728:	4290      	cmp	r0, r2
7010372a:	d00a      	beq.n	70103742 <TIM_Base_SetConfig+0x52>
7010372c:	f102 4270 	add.w	r2, r2, #4026531840	@ 0xf0000000
70103730:	4290      	cmp	r0, r2
70103732:	d006      	beq.n	70103742 <TIM_Base_SetConfig+0x52>
70103734:	4a37      	ldr	r2, [pc, #220]	@ (70103814 <TIM_Base_SetConfig+0x124>)
70103736:	4290      	cmp	r0, r2
70103738:	d003      	beq.n	70103742 <TIM_Base_SetConfig+0x52>
7010373a:	f102 4270 	add.w	r2, r2, #4026531840	@ 0xf0000000
7010373e:	4290      	cmp	r0, r2
70103740:	d108      	bne.n	70103754 <TIM_Base_SetConfig+0x64>
70103742:	684a      	ldr	r2, [r1, #4]
70103744:	f023 0370 	bic.w	r3, r3, #112	@ 0x70
70103748:	4313      	orrs	r3, r2
7010374a:	68ca      	ldr	r2, [r1, #12]
7010374c:	f423 7340 	bic.w	r3, r3, #768	@ 0x300
70103750:	4313      	orrs	r3, r2
70103752:	e022      	b.n	7010379a <TIM_Base_SetConfig+0xaa>
70103754:	4a30      	ldr	r2, [pc, #192]	@ (70103818 <TIM_Base_SetConfig+0x128>)
70103756:	4290      	cmp	r0, r2
70103758:	d0f7      	beq.n	7010374a <TIM_Base_SetConfig+0x5a>
7010375a:	f102 4270 	add.w	r2, r2, #4026531840	@ 0xf0000000
7010375e:	4290      	cmp	r0, r2
70103760:	d0f3      	beq.n	7010374a <TIM_Base_SetConfig+0x5a>
70103762:	4a2e      	ldr	r2, [pc, #184]	@ (7010381c <TIM_Base_SetConfig+0x12c>)
70103764:	4290      	cmp	r0, r2
70103766:	d0f0      	beq.n	7010374a <TIM_Base_SetConfig+0x5a>
70103768:	f102 4270 	add.w	r2, r2, #4026531840	@ 0xf0000000
7010376c:	4290      	cmp	r0, r2
7010376e:	d0ec      	beq.n	7010374a <TIM_Base_SetConfig+0x5a>
70103770:	4a2b      	ldr	r2, [pc, #172]	@ (70103820 <TIM_Base_SetConfig+0x130>)
70103772:	4290      	cmp	r0, r2
70103774:	d0e9      	beq.n	7010374a <TIM_Base_SetConfig+0x5a>
70103776:	f102 4270 	add.w	r2, r2, #4026531840	@ 0xf0000000
7010377a:	4290      	cmp	r0, r2
7010377c:	d0e5      	beq.n	7010374a <TIM_Base_SetConfig+0x5a>
7010377e:	4a29      	ldr	r2, [pc, #164]	@ (70103824 <TIM_Base_SetConfig+0x134>)
70103780:	4290      	cmp	r0, r2
70103782:	d0e2      	beq.n	7010374a <TIM_Base_SetConfig+0x5a>
70103784:	f102 4270 	add.w	r2, r2, #4026531840	@ 0xf0000000
70103788:	4290      	cmp	r0, r2
7010378a:	d0de      	beq.n	7010374a <TIM_Base_SetConfig+0x5a>
7010378c:	4a26      	ldr	r2, [pc, #152]	@ (70103828 <TIM_Base_SetConfig+0x138>)
7010378e:	4290      	cmp	r0, r2
70103790:	d0db      	beq.n	7010374a <TIM_Base_SetConfig+0x5a>
70103792:	f102 4270 	add.w	r2, r2, #4026531840	@ 0xf0000000
70103796:	4290      	cmp	r0, r2
70103798:	d0d7      	beq.n	7010374a <TIM_Base_SetConfig+0x5a>
7010379a:	694a      	ldr	r2, [r1, #20]
7010379c:	f023 0380 	bic.w	r3, r3, #128	@ 0x80
701037a0:	4313      	orrs	r3, r2
701037a2:	6003      	str	r3, [r0, #0]
701037a4:	688b      	ldr	r3, [r1, #8]
701037a6:	f1b0 4fa4 	cmp.w	r0, #1375731712	@ 0x52000000
701037aa:	62c3      	str	r3, [r0, #44]	@ 0x2c
701037ac:	680b      	ldr	r3, [r1, #0]
701037ae:	6283      	str	r3, [r0, #40]	@ 0x28
701037b0:	d01e      	beq.n	701037f0 <TIM_Base_SetConfig+0x100>
701037b2:	f1b0 4f84 	cmp.w	r0, #1107296256	@ 0x42000000
701037b6:	d01b      	beq.n	701037f0 <TIM_Base_SetConfig+0x100>
701037b8:	4b16      	ldr	r3, [pc, #88]	@ (70103814 <TIM_Base_SetConfig+0x124>)
701037ba:	4298      	cmp	r0, r3
701037bc:	d018      	beq.n	701037f0 <TIM_Base_SetConfig+0x100>
701037be:	f103 4370 	add.w	r3, r3, #4026531840	@ 0xf0000000
701037c2:	4298      	cmp	r0, r3
701037c4:	d014      	beq.n	701037f0 <TIM_Base_SetConfig+0x100>
701037c6:	4b16      	ldr	r3, [pc, #88]	@ (70103820 <TIM_Base_SetConfig+0x130>)
701037c8:	4298      	cmp	r0, r3
701037ca:	d011      	beq.n	701037f0 <TIM_Base_SetConfig+0x100>
701037cc:	f103 4370 	add.w	r3, r3, #4026531840	@ 0xf0000000
701037d0:	4298      	cmp	r0, r3
701037d2:	d00d      	beq.n	701037f0 <TIM_Base_SetConfig+0x100>
701037d4:	4b13      	ldr	r3, [pc, #76]	@ (70103824 <TIM_Base_SetConfig+0x134>)
701037d6:	4298      	cmp	r0, r3
701037d8:	d00a      	beq.n	701037f0 <TIM_Base_SetConfig+0x100>
701037da:	f103 4370 	add.w	r3, r3, #4026531840	@ 0xf0000000
701037de:	4298      	cmp	r0, r3
701037e0:	d006      	beq.n	701037f0 <TIM_Base_SetConfig+0x100>
701037e2:	4b11      	ldr	r3, [pc, #68]	@ (70103828 <TIM_Base_SetConfig+0x138>)
701037e4:	4298      	cmp	r0, r3
701037e6:	d003      	beq.n	701037f0 <TIM_Base_SetConfig+0x100>
701037e8:	f103 4370 	add.w	r3, r3, #4026531840	@ 0xf0000000
701037ec:	4298      	cmp	r0, r3
701037ee:	d101      	bne.n	701037f4 <TIM_Base_SetConfig+0x104>
701037f0:	690b      	ldr	r3, [r1, #16]
701037f2:	6303      	str	r3, [r0, #48]	@ 0x30
701037f4:	2301      	movs	r3, #1
701037f6:	6143      	str	r3, [r0, #20]
701037f8:	6903      	ldr	r3, [r0, #16]
701037fa:	07db      	lsls	r3, r3, #31
701037fc:	bf42      	ittt	mi
701037fe:	6903      	ldrmi	r3, [r0, #16]
70103800:	f023 0301 	bicmi.w	r3, r3, #1
70103804:	6103      	strmi	r3, [r0, #16]
70103806:	4770      	bx	lr
70103808:	50000400 	.word	0x50000400
7010380c:	50000800 	.word	0x50000800
70103810:	50000c00 	.word	0x50000c00
70103814:	52000400 	.word	0x52000400
70103818:	52004c00 	.word	0x52004c00
7010381c:	50001800 	.word	0x50001800
70103820:	52004000 	.word	0x52004000
70103824:	52004400 	.word	0x52004400
70103828:	52004800 	.word	0x52004800

7010382c <HAL_TIM_Base_Init>:
7010382c:	b510      	push	{r4, lr}
7010382e:	4604      	mov	r4, r0
70103830:	b350      	cbz	r0, 70103888 <HAL_TIM_Base_Init+0x5c>
70103832:	f890 303d 	ldrb.w	r3, [r0, #61]	@ 0x3d
70103836:	f003 02ff 	and.w	r2, r3, #255	@ 0xff
7010383a:	b91b      	cbnz	r3, 70103844 <HAL_TIM_Base_Init+0x18>
7010383c:	f880 203c 	strb.w	r2, [r0, #60]	@ 0x3c
70103840:	f7fd f8c8 	bl	701009d4 <HAL_TIM_Base_MspInit>
70103844:	2302      	movs	r3, #2
70103846:	6820      	ldr	r0, [r4, #0]
70103848:	f884 303d 	strb.w	r3, [r4, #61]	@ 0x3d
7010384c:	1d21      	adds	r1, r4, #4
7010384e:	f7ff ff4f 	bl	701036f0 <TIM_Base_SetConfig>
70103852:	2301      	movs	r3, #1
70103854:	2000      	movs	r0, #0
70103856:	f884 3048 	strb.w	r3, [r4, #72]	@ 0x48
7010385a:	f884 303e 	strb.w	r3, [r4, #62]	@ 0x3e
7010385e:	f884 303f 	strb.w	r3, [r4, #63]	@ 0x3f
70103862:	f884 3040 	strb.w	r3, [r4, #64]	@ 0x40
70103866:	f884 3041 	strb.w	r3, [r4, #65]	@ 0x41
7010386a:	f884 3042 	strb.w	r3, [r4, #66]	@ 0x42
7010386e:	f884 3043 	strb.w	r3, [r4, #67]	@ 0x43
70103872:	f884 3044 	strb.w	r3, [r4, #68]	@ 0x44
70103876:	f884 3045 	strb.w	r3, [r4, #69]	@ 0x45
7010387a:	f884 3046 	strb.w	r3, [r4, #70]	@ 0x46
7010387e:	f884 3047 	strb.w	r3, [r4, #71]	@ 0x47
70103882:	f884 303d 	strb.w	r3, [r4, #61]	@ 0x3d
70103886:	bd10      	pop	{r4, pc}
70103888:	2001      	movs	r0, #1
7010388a:	e7fc      	b.n	70103886 <HAL_TIM_Base_Init+0x5a>

7010388c <HAL_TIM_PWM_Init>:
7010388c:	b510      	push	{r4, lr}
7010388e:	4604      	mov	r4, r0
70103890:	b350      	cbz	r0, 701038e8 <HAL_TIM_PWM_Init+0x5c>
70103892:	f890 303d 	ldrb.w	r3, [r0, #61]	@ 0x3d
70103896:	f003 02ff 	and.w	r2, r3, #255	@ 0xff
7010389a:	b91b      	cbnz	r3, 701038a4 <HAL_TIM_PWM_Init+0x18>
7010389c:	f880 203c 	strb.w	r2, [r0, #60]	@ 0x3c
701038a0:	f7fd f8ac 	bl	701009fc <HAL_TIM_PWM_MspInit>
701038a4:	2302      	movs	r3, #2
701038a6:	6820      	ldr	r0, [r4, #0]
701038a8:	f884 303d 	strb.w	r3, [r4, #61]	@ 0x3d
701038ac:	1d21      	adds	r1, r4, #4
701038ae:	f7ff ff1f 	bl	701036f0 <TIM_Base_SetConfig>
701038b2:	2301      	movs	r3, #1
701038b4:	2000      	movs	r0, #0
701038b6:	f884 3048 	strb.w	r3, [r4, #72]	@ 0x48
701038ba:	f884 303e 	strb.w	r3, [r4, #62]	@ 0x3e
701038be:	f884 303f 	strb.w	r3, [r4, #63]	@ 0x3f
701038c2:	f884 3040 	strb.w	r3, [r4, #64]	@ 0x40
701038c6:	f884 3041 	strb.w	r3, [r4, #65]	@ 0x41
701038ca:	f884 3042 	strb.w	r3, [r4, #66]	@ 0x42
701038ce:	f884 3043 	strb.w	r3, [r4, #67]	@ 0x43
701038d2:	f884 3044 	strb.w	r3, [r4, #68]	@ 0x44
701038d6:	f884 3045 	strb.w	r3, [r4, #69]	@ 0x45
701038da:	f884 3046 	strb.w	r3, [r4, #70]	@ 0x46
701038de:	f884 3047 	strb.w	r3, [r4, #71]	@ 0x47
701038e2:	f884 303d 	strb.w	r3, [r4, #61]	@ 0x3d
701038e6:	bd10      	pop	{r4, pc}
701038e8:	2001      	movs	r0, #1
701038ea:	e7fc      	b.n	701038e6 <HAL_TIM_PWM_Init+0x5a>

701038ec <TIM_OC2_SetConfig>:
701038ec:	6a03      	ldr	r3, [r0, #32]
701038ee:	6a02      	ldr	r2, [r0, #32]
701038f0:	b570      	push	{r4, r5, r6, lr}
701038f2:	f022 0210 	bic.w	r2, r2, #16
701038f6:	6202      	str	r2, [r0, #32]
701038f8:	6844      	ldr	r4, [r0, #4]
701038fa:	6982      	ldr	r2, [r0, #24]
701038fc:	680d      	ldr	r5, [r1, #0]
701038fe:	f022 7280 	bic.w	r2, r2, #16777216	@ 0x1000000
70103902:	f422 42e6 	bic.w	r2, r2, #29440	@ 0x7300
70103906:	ea42 2205 	orr.w	r2, r2, r5, lsl #8
7010390a:	688d      	ldr	r5, [r1, #8]
7010390c:	f023 0320 	bic.w	r3, r3, #32
70103910:	f1b0 4fa4 	cmp.w	r0, #1375731712	@ 0x52000000
70103914:	ea43 1305 	orr.w	r3, r3, r5, lsl #4
70103918:	d009      	beq.n	7010392e <TIM_OC2_SetConfig+0x42>
7010391a:	f1b0 4f84 	cmp.w	r0, #1107296256	@ 0x42000000
7010391e:	d006      	beq.n	7010392e <TIM_OC2_SetConfig+0x42>
70103920:	4d18      	ldr	r5, [pc, #96]	@ (70103984 <TIM_OC2_SetConfig+0x98>)
70103922:	42a8      	cmp	r0, r5
70103924:	d003      	beq.n	7010392e <TIM_OC2_SetConfig+0x42>
70103926:	f105 4570 	add.w	r5, r5, #4026531840	@ 0xf0000000
7010392a:	42a8      	cmp	r0, r5
7010392c:	d10e      	bne.n	7010394c <TIM_OC2_SetConfig+0x60>
7010392e:	68cd      	ldr	r5, [r1, #12]
70103930:	f023 0380 	bic.w	r3, r3, #128	@ 0x80
70103934:	ea43 1305 	orr.w	r3, r3, r5, lsl #4
70103938:	f023 0340 	bic.w	r3, r3, #64	@ 0x40
7010393c:	f424 6540 	bic.w	r5, r4, #3072	@ 0xc00
70103940:	e9d1 4605 	ldrd	r4, r6, [r1, #20]
70103944:	4334      	orrs	r4, r6
70103946:	ea45 0484 	orr.w	r4, r5, r4, lsl #2
7010394a:	e014      	b.n	70103976 <TIM_OC2_SetConfig+0x8a>
7010394c:	4d0e      	ldr	r5, [pc, #56]	@ (70103988 <TIM_OC2_SetConfig+0x9c>)
7010394e:	42a8      	cmp	r0, r5
70103950:	d0f4      	beq.n	7010393c <TIM_OC2_SetConfig+0x50>
70103952:	f105 4570 	add.w	r5, r5, #4026531840	@ 0xf0000000
70103956:	42a8      	cmp	r0, r5
70103958:	d0f0      	beq.n	7010393c <TIM_OC2_SetConfig+0x50>
7010395a:	4d0c      	ldr	r5, [pc, #48]	@ (7010398c <TIM_OC2_SetConfig+0xa0>)
7010395c:	42a8      	cmp	r0, r5
7010395e:	d0ed      	beq.n	7010393c <TIM_OC2_SetConfig+0x50>
70103960:	f105 4570 	add.w	r5, r5, #4026531840	@ 0xf0000000
70103964:	42a8      	cmp	r0, r5
70103966:	d0e9      	beq.n	7010393c <TIM_OC2_SetConfig+0x50>
70103968:	4d09      	ldr	r5, [pc, #36]	@ (70103990 <TIM_OC2_SetConfig+0xa4>)
7010396a:	42a8      	cmp	r0, r5
7010396c:	d0e6      	beq.n	7010393c <TIM_OC2_SetConfig+0x50>
7010396e:	f105 4570 	add.w	r5, r5, #4026531840	@ 0xf0000000
70103972:	42a8      	cmp	r0, r5
70103974:	d0e2      	beq.n	7010393c <TIM_OC2_SetConfig+0x50>
70103976:	6044      	str	r4, [r0, #4]
70103978:	6182      	str	r2, [r0, #24]
7010397a:	684a      	ldr	r2, [r1, #4]
7010397c:	6382      	str	r2, [r0, #56]	@ 0x38
7010397e:	6203      	str	r3, [r0, #32]
70103980:	bd70      	pop	{r4, r5, r6, pc}
70103982:	bf00      	nop
70103984:	52000400 	.word	0x52000400
70103988:	52004000 	.word	0x52004000
7010398c:	52004400 	.word	0x52004400
70103990:	52004800 	.word	0x52004800

70103994 <HAL_TIM_PWM_ConfigChannel>:
70103994:	b538      	push	{r3, r4, r5, lr}
70103996:	f890 303c 	ldrb.w	r3, [r0, #60]	@ 0x3c
7010399a:	4604      	mov	r4, r0
7010399c:	2b01      	cmp	r3, #1
7010399e:	d073      	beq.n	70103a88 <HAL_TIM_PWM_ConfigChannel+0xf4>
701039a0:	2001      	movs	r0, #1
701039a2:	2a0c      	cmp	r2, #12
701039a4:	f884 003c 	strb.w	r0, [r4, #60]	@ 0x3c
701039a8:	d04e      	beq.n	70103a48 <HAL_TIM_PWM_ConfigChannel+0xb4>
701039aa:	d808      	bhi.n	701039be <HAL_TIM_PWM_ConfigChannel+0x2a>
701039ac:	2a04      	cmp	r2, #4
701039ae:	d02b      	beq.n	70103a08 <HAL_TIM_PWM_ConfigChannel+0x74>
701039b0:	2a08      	cmp	r2, #8
701039b2:	d039      	beq.n	70103a28 <HAL_TIM_PWM_ConfigChannel+0x94>
701039b4:	b1ba      	cbz	r2, 701039e6 <HAL_TIM_PWM_ConfigChannel+0x52>
701039b6:	2300      	movs	r3, #0
701039b8:	f884 303c 	strb.w	r3, [r4, #60]	@ 0x3c
701039bc:	bd38      	pop	{r3, r4, r5, pc}
701039be:	2a10      	cmp	r2, #16
701039c0:	d052      	beq.n	70103a68 <HAL_TIM_PWM_ConfigChannel+0xd4>
701039c2:	2a14      	cmp	r2, #20
701039c4:	d1f7      	bne.n	701039b6 <HAL_TIM_PWM_ConfigChannel+0x22>
701039c6:	6820      	ldr	r0, [r4, #0]
701039c8:	f7ff fe48 	bl	7010365c <TIM_OC6_SetConfig>
701039cc:	6d03      	ldr	r3, [r0, #80]	@ 0x50
701039ce:	690a      	ldr	r2, [r1, #16]
701039d0:	f443 6300 	orr.w	r3, r3, #2048	@ 0x800
701039d4:	6503      	str	r3, [r0, #80]	@ 0x50
701039d6:	6d03      	ldr	r3, [r0, #80]	@ 0x50
701039d8:	f423 6380 	bic.w	r3, r3, #1024	@ 0x400
701039dc:	6503      	str	r3, [r0, #80]	@ 0x50
701039de:	6d03      	ldr	r3, [r0, #80]	@ 0x50
701039e0:	ea43 2302 	orr.w	r3, r3, r2, lsl #8
701039e4:	e04e      	b.n	70103a84 <HAL_TIM_PWM_ConfigChannel+0xf0>
701039e6:	6820      	ldr	r0, [r4, #0]
701039e8:	f7ff fcfa 	bl	701033e0 <TIM_OC1_SetConfig>
701039ec:	6983      	ldr	r3, [r0, #24]
701039ee:	690a      	ldr	r2, [r1, #16]
701039f0:	f043 0308 	orr.w	r3, r3, #8
701039f4:	6183      	str	r3, [r0, #24]
701039f6:	6983      	ldr	r3, [r0, #24]
701039f8:	f023 0304 	bic.w	r3, r3, #4
701039fc:	6183      	str	r3, [r0, #24]
701039fe:	6983      	ldr	r3, [r0, #24]
70103a00:	4313      	orrs	r3, r2
70103a02:	6183      	str	r3, [r0, #24]
70103a04:	2000      	movs	r0, #0
70103a06:	e7d6      	b.n	701039b6 <HAL_TIM_PWM_ConfigChannel+0x22>
70103a08:	6820      	ldr	r0, [r4, #0]
70103a0a:	f7ff ff6f 	bl	701038ec <TIM_OC2_SetConfig>
70103a0e:	6983      	ldr	r3, [r0, #24]
70103a10:	690a      	ldr	r2, [r1, #16]
70103a12:	f443 6300 	orr.w	r3, r3, #2048	@ 0x800
70103a16:	6183      	str	r3, [r0, #24]
70103a18:	6983      	ldr	r3, [r0, #24]
70103a1a:	f423 6380 	bic.w	r3, r3, #1024	@ 0x400
70103a1e:	6183      	str	r3, [r0, #24]
70103a20:	6983      	ldr	r3, [r0, #24]
70103a22:	ea43 2302 	orr.w	r3, r3, r2, lsl #8
70103a26:	e7ec      	b.n	70103a02 <HAL_TIM_PWM_ConfigChannel+0x6e>
70103a28:	6820      	ldr	r0, [r4, #0]
70103a2a:	f7ff fd29 	bl	70103480 <TIM_OC3_SetConfig>
70103a2e:	69c3      	ldr	r3, [r0, #28]
70103a30:	690a      	ldr	r2, [r1, #16]
70103a32:	f043 0308 	orr.w	r3, r3, #8
70103a36:	61c3      	str	r3, [r0, #28]
70103a38:	69c3      	ldr	r3, [r0, #28]
70103a3a:	f023 0304 	bic.w	r3, r3, #4
70103a3e:	61c3      	str	r3, [r0, #28]
70103a40:	69c3      	ldr	r3, [r0, #28]
70103a42:	4313      	orrs	r3, r2
70103a44:	61c3      	str	r3, [r0, #28]
70103a46:	e7dd      	b.n	70103a04 <HAL_TIM_PWM_ConfigChannel+0x70>
70103a48:	6820      	ldr	r0, [r4, #0]
70103a4a:	f7ff fd6b 	bl	70103524 <TIM_OC4_SetConfig>
70103a4e:	69c3      	ldr	r3, [r0, #28]
70103a50:	690a      	ldr	r2, [r1, #16]
70103a52:	f443 6300 	orr.w	r3, r3, #2048	@ 0x800
70103a56:	61c3      	str	r3, [r0, #28]
70103a58:	69c3      	ldr	r3, [r0, #28]
70103a5a:	f423 6380 	bic.w	r3, r3, #1024	@ 0x400
70103a5e:	61c3      	str	r3, [r0, #28]
70103a60:	69c3      	ldr	r3, [r0, #28]
70103a62:	ea43 2302 	orr.w	r3, r3, r2, lsl #8
70103a66:	e7ed      	b.n	70103a44 <HAL_TIM_PWM_ConfigChannel+0xb0>
70103a68:	6820      	ldr	r0, [r4, #0]
70103a6a:	f7ff fdaf 	bl	701035cc <TIM_OC5_SetConfig>
70103a6e:	6d03      	ldr	r3, [r0, #80]	@ 0x50
70103a70:	690a      	ldr	r2, [r1, #16]
70103a72:	f043 0308 	orr.w	r3, r3, #8
70103a76:	6503      	str	r3, [r0, #80]	@ 0x50
70103a78:	6d03      	ldr	r3, [r0, #80]	@ 0x50
70103a7a:	f023 0304 	bic.w	r3, r3, #4
70103a7e:	6503      	str	r3, [r0, #80]	@ 0x50
70103a80:	6d03      	ldr	r3, [r0, #80]	@ 0x50
70103a82:	4313      	orrs	r3, r2
70103a84:	6503      	str	r3, [r0, #80]	@ 0x50
70103a86:	e7bd      	b.n	70103a04 <HAL_TIM_PWM_ConfigChannel+0x70>
70103a88:	2002      	movs	r0, #2
70103a8a:	e797      	b.n	701039bc <HAL_TIM_PWM_ConfigChannel+0x28>

70103a8c <TIM_ETR_SetConfig>:
70103a8c:	b510      	push	{r4, lr}
70103a8e:	6884      	ldr	r4, [r0, #8]
70103a90:	430a      	orrs	r2, r1
70103a92:	f424 447f 	bic.w	r4, r4, #65280	@ 0xff00
70103a96:	ea42 2203 	orr.w	r2, r2, r3, lsl #8
70103a9a:	4322      	orrs	r2, r4
70103a9c:	6082      	str	r2, [r0, #8]
70103a9e:	bd10      	pop	{r4, pc}

70103aa0 <HAL_TIM_ConfigClockSource>:
70103aa0:	b538      	push	{r3, r4, r5, lr}
70103aa2:	f890 303c 	ldrb.w	r3, [r0, #60]	@ 0x3c
70103aa6:	4604      	mov	r4, r0
70103aa8:	2b01      	cmp	r3, #1
70103aaa:	f04f 0302 	mov.w	r3, #2
70103aae:	f000 80ba 	beq.w	70103c26 <HAL_TIM_ConfigClockSource+0x186>
70103ab2:	2201      	movs	r2, #1
70103ab4:	f880 303d 	strb.w	r3, [r0, #61]	@ 0x3d
70103ab8:	f880 203c 	strb.w	r2, [r0, #60]	@ 0x3c
70103abc:	6800      	ldr	r0, [r0, #0]
70103abe:	4b5b      	ldr	r3, [pc, #364]	@ (70103c2c <HAL_TIM_ConfigClockSource+0x18c>)
70103ac0:	6885      	ldr	r5, [r0, #8]
70103ac2:	402b      	ands	r3, r5
70103ac4:	6083      	str	r3, [r0, #8]
70103ac6:	680b      	ldr	r3, [r1, #0]
70103ac8:	2b70      	cmp	r3, #112	@ 0x70
70103aca:	d04c      	beq.n	70103b66 <HAL_TIM_ConfigClockSource+0xc6>
70103acc:	d81e      	bhi.n	70103b0c <HAL_TIM_ConfigClockSource+0x6c>
70103ace:	2b50      	cmp	r3, #80	@ 0x50
70103ad0:	d05d      	beq.n	70103b8e <HAL_TIM_ConfigClockSource+0xee>
70103ad2:	d817      	bhi.n	70103b04 <HAL_TIM_ConfigClockSource+0x64>
70103ad4:	2b40      	cmp	r3, #64	@ 0x40
70103ad6:	f000 808d 	beq.w	70103bf4 <HAL_TIM_ConfigClockSource+0x154>
70103ada:	d815      	bhi.n	70103b08 <HAL_TIM_ConfigClockSource+0x68>
70103adc:	2b20      	cmp	r3, #32
70103ade:	d007      	beq.n	70103af0 <HAL_TIM_ConfigClockSource+0x50>
70103ae0:	d804      	bhi.n	70103aec <HAL_TIM_ConfigClockSource+0x4c>
70103ae2:	f033 0210 	bics.w	r2, r3, #16
70103ae6:	d003      	beq.n	70103af0 <HAL_TIM_ConfigClockSource+0x50>
70103ae8:	2001      	movs	r0, #1
70103aea:	e017      	b.n	70103b1c <HAL_TIM_ConfigClockSource+0x7c>
70103aec:	2b30      	cmp	r3, #48	@ 0x30
70103aee:	d1fb      	bne.n	70103ae8 <HAL_TIM_ConfigClockSource+0x48>
70103af0:	6882      	ldr	r2, [r0, #8]
70103af2:	f422 1240 	bic.w	r2, r2, #3145728	@ 0x300000
70103af6:	f022 0270 	bic.w	r2, r2, #112	@ 0x70
70103afa:	431a      	orrs	r2, r3
70103afc:	f042 0207 	orr.w	r2, r2, #7
70103b00:	6082      	str	r2, [r0, #8]
70103b02:	e039      	b.n	70103b78 <HAL_TIM_ConfigClockSource+0xd8>
70103b04:	2b60      	cmp	r3, #96	@ 0x60
70103b06:	d05b      	beq.n	70103bc0 <HAL_TIM_ConfigClockSource+0x120>
70103b08:	4610      	mov	r0, r2
70103b0a:	e007      	b.n	70103b1c <HAL_TIM_ConfigClockSource+0x7c>
70103b0c:	f5b3 5f00 	cmp.w	r3, #8192	@ 0x2000
70103b10:	d034      	beq.n	70103b7c <HAL_TIM_ConfigClockSource+0xdc>
70103b12:	d80a      	bhi.n	70103b2a <HAL_TIM_ConfigClockSource+0x8a>
70103b14:	f5b3 5080 	subs.w	r0, r3, #4096	@ 0x1000
70103b18:	bf18      	it	ne
70103b1a:	2001      	movne	r0, #1
70103b1c:	2301      	movs	r3, #1
70103b1e:	f884 303d 	strb.w	r3, [r4, #61]	@ 0x3d
70103b22:	2300      	movs	r3, #0
70103b24:	f884 303c 	strb.w	r3, [r4, #60]	@ 0x3c
70103b28:	bd38      	pop	{r3, r4, r5, pc}
70103b2a:	4a41      	ldr	r2, [pc, #260]	@ (70103c30 <HAL_TIM_ConfigClockSource+0x190>)
70103b2c:	4293      	cmp	r3, r2
70103b2e:	d0df      	beq.n	70103af0 <HAL_TIM_ConfigClockSource+0x50>
70103b30:	d80e      	bhi.n	70103b50 <HAL_TIM_ConfigClockSource+0xb0>
70103b32:	3a30      	subs	r2, #48	@ 0x30
70103b34:	4293      	cmp	r3, r2
70103b36:	d0db      	beq.n	70103af0 <HAL_TIM_ConfigClockSource+0x50>
70103b38:	d804      	bhi.n	70103b44 <HAL_TIM_ConfigClockSource+0xa4>
70103b3a:	f023 0210 	bic.w	r2, r3, #16
70103b3e:	f5b2 1f80 	cmp.w	r2, #1048576	@ 0x100000
70103b42:	e7d4      	b.n	70103aee <HAL_TIM_ConfigClockSource+0x4e>
70103b44:	4a3b      	ldr	r2, [pc, #236]	@ (70103c34 <HAL_TIM_ConfigClockSource+0x194>)
70103b46:	4293      	cmp	r3, r2
70103b48:	d0d2      	beq.n	70103af0 <HAL_TIM_ConfigClockSource+0x50>
70103b4a:	3210      	adds	r2, #16
70103b4c:	4293      	cmp	r3, r2
70103b4e:	e7ce      	b.n	70103aee <HAL_TIM_ConfigClockSource+0x4e>
70103b50:	f5b3 1f00 	cmp.w	r3, #2097152	@ 0x200000
70103b54:	d0cc      	beq.n	70103af0 <HAL_TIM_ConfigClockSource+0x50>
70103b56:	d804      	bhi.n	70103b62 <HAL_TIM_ConfigClockSource+0xc2>
70103b58:	4a37      	ldr	r2, [pc, #220]	@ (70103c38 <HAL_TIM_ConfigClockSource+0x198>)
70103b5a:	f023 0110 	bic.w	r1, r3, #16
70103b5e:	4291      	cmp	r1, r2
70103b60:	e7c5      	b.n	70103aee <HAL_TIM_ConfigClockSource+0x4e>
70103b62:	4a36      	ldr	r2, [pc, #216]	@ (70103c3c <HAL_TIM_ConfigClockSource+0x19c>)
70103b64:	e7f2      	b.n	70103b4c <HAL_TIM_ConfigClockSource+0xac>
70103b66:	68cb      	ldr	r3, [r1, #12]
70103b68:	e9d1 2101 	ldrd	r2, r1, [r1, #4]
70103b6c:	f7ff ff8e 	bl	70103a8c <TIM_ETR_SetConfig>
70103b70:	6883      	ldr	r3, [r0, #8]
70103b72:	f043 0377 	orr.w	r3, r3, #119	@ 0x77
70103b76:	6083      	str	r3, [r0, #8]
70103b78:	2000      	movs	r0, #0
70103b7a:	e7cf      	b.n	70103b1c <HAL_TIM_ConfigClockSource+0x7c>
70103b7c:	68cb      	ldr	r3, [r1, #12]
70103b7e:	e9d1 2101 	ldrd	r2, r1, [r1, #4]
70103b82:	f7ff ff83 	bl	70103a8c <TIM_ETR_SetConfig>
70103b86:	6883      	ldr	r3, [r0, #8]
70103b88:	f443 4380 	orr.w	r3, r3, #16384	@ 0x4000
70103b8c:	e7f3      	b.n	70103b76 <HAL_TIM_ConfigClockSource+0xd6>
70103b8e:	684a      	ldr	r2, [r1, #4]
70103b90:	68cd      	ldr	r5, [r1, #12]
70103b92:	6a01      	ldr	r1, [r0, #32]
70103b94:	6a03      	ldr	r3, [r0, #32]
70103b96:	f021 010a 	bic.w	r1, r1, #10
70103b9a:	f023 0301 	bic.w	r3, r3, #1
70103b9e:	6203      	str	r3, [r0, #32]
70103ba0:	6983      	ldr	r3, [r0, #24]
70103ba2:	430a      	orrs	r2, r1
70103ba4:	f023 03f0 	bic.w	r3, r3, #240	@ 0xf0
70103ba8:	ea43 1305 	orr.w	r3, r3, r5, lsl #4
70103bac:	6183      	str	r3, [r0, #24]
70103bae:	6202      	str	r2, [r0, #32]
70103bb0:	6883      	ldr	r3, [r0, #8]
70103bb2:	f423 1340 	bic.w	r3, r3, #3145728	@ 0x300000
70103bb6:	f023 0370 	bic.w	r3, r3, #112	@ 0x70
70103bba:	f043 0357 	orr.w	r3, r3, #87	@ 0x57
70103bbe:	e7da      	b.n	70103b76 <HAL_TIM_ConfigClockSource+0xd6>
70103bc0:	6a03      	ldr	r3, [r0, #32]
70103bc2:	6a02      	ldr	r2, [r0, #32]
70103bc4:	684d      	ldr	r5, [r1, #4]
70103bc6:	f022 0210 	bic.w	r2, r2, #16
70103bca:	68c9      	ldr	r1, [r1, #12]
70103bcc:	6202      	str	r2, [r0, #32]
70103bce:	6982      	ldr	r2, [r0, #24]
70103bd0:	f023 03a0 	bic.w	r3, r3, #160	@ 0xa0
70103bd4:	f422 4270 	bic.w	r2, r2, #61440	@ 0xf000
70103bd8:	ea43 1305 	orr.w	r3, r3, r5, lsl #4
70103bdc:	ea42 3201 	orr.w	r2, r2, r1, lsl #12
70103be0:	6182      	str	r2, [r0, #24]
70103be2:	6203      	str	r3, [r0, #32]
70103be4:	6883      	ldr	r3, [r0, #8]
70103be6:	f423 1340 	bic.w	r3, r3, #3145728	@ 0x300000
70103bea:	f023 0370 	bic.w	r3, r3, #112	@ 0x70
70103bee:	f043 0367 	orr.w	r3, r3, #103	@ 0x67
70103bf2:	e7c0      	b.n	70103b76 <HAL_TIM_ConfigClockSource+0xd6>
70103bf4:	684a      	ldr	r2, [r1, #4]
70103bf6:	68cd      	ldr	r5, [r1, #12]
70103bf8:	6a01      	ldr	r1, [r0, #32]
70103bfa:	6a03      	ldr	r3, [r0, #32]
70103bfc:	f021 010a 	bic.w	r1, r1, #10
70103c00:	f023 0301 	bic.w	r3, r3, #1
70103c04:	6203      	str	r3, [r0, #32]
70103c06:	6983      	ldr	r3, [r0, #24]
70103c08:	430a      	orrs	r2, r1
70103c0a:	f023 03f0 	bic.w	r3, r3, #240	@ 0xf0
70103c0e:	ea43 1305 	orr.w	r3, r3, r5, lsl #4
70103c12:	6183      	str	r3, [r0, #24]
70103c14:	6202      	str	r2, [r0, #32]
70103c16:	6883      	ldr	r3, [r0, #8]
70103c18:	f423 1340 	bic.w	r3, r3, #3145728	@ 0x300000
70103c1c:	f023 0370 	bic.w	r3, r3, #112	@ 0x70
70103c20:	f043 0347 	orr.w	r3, r3, #71	@ 0x47
70103c24:	e7a7      	b.n	70103b76 <HAL_TIM_ConfigClockSource+0xd6>
70103c26:	4618      	mov	r0, r3
70103c28:	e77e      	b.n	70103b28 <HAL_TIM_ConfigClockSource+0x88>
70103c2a:	bf00      	nop
70103c2c:	ffce0088 	.word	0xffce0088
70103c30:	00100050 	.word	0x00100050
70103c34:	00100030 	.word	0x00100030
70103c38:	00100060 	.word	0x00100060
70103c3c:	00200010 	.word	0x00200010

70103c40 <TIM_CCxChannelCmd>:
70103c40:	b510      	push	{r4, lr}
70103c42:	2401      	movs	r4, #1
70103c44:	6a03      	ldr	r3, [r0, #32]
70103c46:	f001 011f 	and.w	r1, r1, #31
70103c4a:	408c      	lsls	r4, r1
70103c4c:	ea23 0304 	bic.w	r3, r3, r4
70103c50:	6203      	str	r3, [r0, #32]
70103c52:	6a03      	ldr	r3, [r0, #32]
70103c54:	408a      	lsls	r2, r1
70103c56:	431a      	orrs	r2, r3
70103c58:	6202      	str	r2, [r0, #32]
70103c5a:	bd10      	pop	{r4, pc}

70103c5c <HAL_TIM_OC_Start>:
70103c5c:	2908      	cmp	r1, #8
70103c5e:	b508      	push	{r3, lr}
70103c60:	d018      	beq.n	70103c94 <HAL_TIM_OC_Start+0x38>
70103c62:	d805      	bhi.n	70103c70 <HAL_TIM_OC_Start+0x14>
70103c64:	b159      	cbz	r1, 70103c7e <HAL_TIM_OC_Start+0x22>
70103c66:	2904      	cmp	r1, #4
70103c68:	d011      	beq.n	70103c8e <HAL_TIM_OC_Start+0x32>
70103c6a:	f890 3043 	ldrb.w	r3, [r0, #67]	@ 0x43
70103c6e:	e008      	b.n	70103c82 <HAL_TIM_OC_Start+0x26>
70103c70:	290c      	cmp	r1, #12
70103c72:	d012      	beq.n	70103c9a <HAL_TIM_OC_Start+0x3e>
70103c74:	2910      	cmp	r1, #16
70103c76:	d1f8      	bne.n	70103c6a <HAL_TIM_OC_Start+0xe>
70103c78:	f890 3042 	ldrb.w	r3, [r0, #66]	@ 0x42
70103c7c:	e001      	b.n	70103c82 <HAL_TIM_OC_Start+0x26>
70103c7e:	f890 303e 	ldrb.w	r3, [r0, #62]	@ 0x3e
70103c82:	3b01      	subs	r3, #1
70103c84:	bf18      	it	ne
70103c86:	2301      	movne	r3, #1
70103c88:	b153      	cbz	r3, 70103ca0 <HAL_TIM_OC_Start+0x44>
70103c8a:	2001      	movs	r0, #1
70103c8c:	e050      	b.n	70103d30 <HAL_TIM_OC_Start+0xd4>
70103c8e:	f890 303f 	ldrb.w	r3, [r0, #63]	@ 0x3f
70103c92:	e7f6      	b.n	70103c82 <HAL_TIM_OC_Start+0x26>
70103c94:	f890 3040 	ldrb.w	r3, [r0, #64]	@ 0x40
70103c98:	e7f3      	b.n	70103c82 <HAL_TIM_OC_Start+0x26>
70103c9a:	f890 3041 	ldrb.w	r3, [r0, #65]	@ 0x41
70103c9e:	e7f0      	b.n	70103c82 <HAL_TIM_OC_Start+0x26>
70103ca0:	2908      	cmp	r1, #8
70103ca2:	f04f 0302 	mov.w	r3, #2
70103ca6:	d047      	beq.n	70103d38 <HAL_TIM_OC_Start+0xdc>
70103ca8:	d806      	bhi.n	70103cb8 <HAL_TIM_OC_Start+0x5c>
70103caa:	b161      	cbz	r1, 70103cc6 <HAL_TIM_OC_Start+0x6a>
70103cac:	2904      	cmp	r1, #4
70103cae:	d040      	beq.n	70103d32 <HAL_TIM_OC_Start+0xd6>
70103cb0:	2302      	movs	r3, #2
70103cb2:	f880 3043 	strb.w	r3, [r0, #67]	@ 0x43
70103cb6:	e008      	b.n	70103cca <HAL_TIM_OC_Start+0x6e>
70103cb8:	290c      	cmp	r1, #12
70103cba:	d040      	beq.n	70103d3e <HAL_TIM_OC_Start+0xe2>
70103cbc:	2910      	cmp	r1, #16
70103cbe:	d1f7      	bne.n	70103cb0 <HAL_TIM_OC_Start+0x54>
70103cc0:	f880 3042 	strb.w	r3, [r0, #66]	@ 0x42
70103cc4:	e001      	b.n	70103cca <HAL_TIM_OC_Start+0x6e>
70103cc6:	f880 303e 	strb.w	r3, [r0, #62]	@ 0x3e
70103cca:	6800      	ldr	r0, [r0, #0]
70103ccc:	2201      	movs	r2, #1
70103cce:	f7ff ffb7 	bl	70103c40 <TIM_CCxChannelCmd>
70103cd2:	f1b0 4fa4 	cmp.w	r0, #1375731712	@ 0x52000000
70103cd6:	d01e      	beq.n	70103d16 <HAL_TIM_OC_Start+0xba>
70103cd8:	f1b0 4f84 	cmp.w	r0, #1107296256	@ 0x42000000
70103cdc:	d01b      	beq.n	70103d16 <HAL_TIM_OC_Start+0xba>
70103cde:	4b3a      	ldr	r3, [pc, #232]	@ (70103dc8 <HAL_TIM_OC_Start+0x16c>)
70103ce0:	4298      	cmp	r0, r3
70103ce2:	d018      	beq.n	70103d16 <HAL_TIM_OC_Start+0xba>
70103ce4:	f103 4370 	add.w	r3, r3, #4026531840	@ 0xf0000000
70103ce8:	4298      	cmp	r0, r3
70103cea:	d014      	beq.n	70103d16 <HAL_TIM_OC_Start+0xba>
70103cec:	4b37      	ldr	r3, [pc, #220]	@ (70103dcc <HAL_TIM_OC_Start+0x170>)
70103cee:	4298      	cmp	r0, r3
70103cf0:	d011      	beq.n	70103d16 <HAL_TIM_OC_Start+0xba>
70103cf2:	f103 4370 	add.w	r3, r3, #4026531840	@ 0xf0000000
70103cf6:	4298      	cmp	r0, r3
70103cf8:	d00d      	beq.n	70103d16 <HAL_TIM_OC_Start+0xba>
70103cfa:	4b35      	ldr	r3, [pc, #212]	@ (70103dd0 <HAL_TIM_OC_Start+0x174>)
70103cfc:	4298      	cmp	r0, r3
70103cfe:	d00a      	beq.n	70103d16 <HAL_TIM_OC_Start+0xba>
70103d00:	f103 4370 	add.w	r3, r3, #4026531840	@ 0xf0000000
70103d04:	4298      	cmp	r0, r3
70103d06:	d006      	beq.n	70103d16 <HAL_TIM_OC_Start+0xba>
70103d08:	4b32      	ldr	r3, [pc, #200]	@ (70103dd4 <HAL_TIM_OC_Start+0x178>)
70103d0a:	4298      	cmp	r0, r3
70103d0c:	d003      	beq.n	70103d16 <HAL_TIM_OC_Start+0xba>
70103d0e:	f103 4370 	add.w	r3, r3, #4026531840	@ 0xf0000000
70103d12:	4298      	cmp	r0, r3
70103d14:	d11a      	bne.n	70103d4c <HAL_TIM_OC_Start+0xf0>
70103d16:	6c43      	ldr	r3, [r0, #68]	@ 0x44
70103d18:	f1b0 4fa4 	cmp.w	r0, #1375731712	@ 0x52000000
70103d1c:	f443 4300 	orr.w	r3, r3, #32768	@ 0x8000
70103d20:	6443      	str	r3, [r0, #68]	@ 0x44
70103d22:	d130      	bne.n	70103d86 <HAL_TIM_OC_Start+0x12a>
70103d24:	6882      	ldr	r2, [r0, #8]
70103d26:	4b2c      	ldr	r3, [pc, #176]	@ (70103dd8 <HAL_TIM_OC_Start+0x17c>)
70103d28:	4013      	ands	r3, r2
70103d2a:	2b06      	cmp	r3, #6
70103d2c:	d10a      	bne.n	70103d44 <HAL_TIM_OC_Start+0xe8>
70103d2e:	2000      	movs	r0, #0
70103d30:	bd08      	pop	{r3, pc}
70103d32:	f880 303f 	strb.w	r3, [r0, #63]	@ 0x3f
70103d36:	e7c8      	b.n	70103cca <HAL_TIM_OC_Start+0x6e>
70103d38:	f880 3040 	strb.w	r3, [r0, #64]	@ 0x40
70103d3c:	e7c5      	b.n	70103cca <HAL_TIM_OC_Start+0x6e>
70103d3e:	f880 3041 	strb.w	r3, [r0, #65]	@ 0x41
70103d42:	e7c2      	b.n	70103cca <HAL_TIM_OC_Start+0x6e>
70103d44:	f5b3 3f80 	cmp.w	r3, #65536	@ 0x10000
70103d48:	d138      	bne.n	70103dbc <HAL_TIM_OC_Start+0x160>
70103d4a:	e7f0      	b.n	70103d2e <HAL_TIM_OC_Start+0xd2>
70103d4c:	f1b0 4fa0 	cmp.w	r0, #1342177280	@ 0x50000000
70103d50:	d0e8      	beq.n	70103d24 <HAL_TIM_OC_Start+0xc8>
70103d52:	f1b0 4f80 	cmp.w	r0, #1073741824	@ 0x40000000
70103d56:	d0e5      	beq.n	70103d24 <HAL_TIM_OC_Start+0xc8>
70103d58:	4b20      	ldr	r3, [pc, #128]	@ (70103ddc <HAL_TIM_OC_Start+0x180>)
70103d5a:	4298      	cmp	r0, r3
70103d5c:	d0e2      	beq.n	70103d24 <HAL_TIM_OC_Start+0xc8>
70103d5e:	f103 4370 	add.w	r3, r3, #4026531840	@ 0xf0000000
70103d62:	4298      	cmp	r0, r3
70103d64:	d0de      	beq.n	70103d24 <HAL_TIM_OC_Start+0xc8>
70103d66:	4b1e      	ldr	r3, [pc, #120]	@ (70103de0 <HAL_TIM_OC_Start+0x184>)
70103d68:	4298      	cmp	r0, r3
70103d6a:	d0db      	beq.n	70103d24 <HAL_TIM_OC_Start+0xc8>
70103d6c:	f103 4370 	add.w	r3, r3, #4026531840	@ 0xf0000000
70103d70:	4298      	cmp	r0, r3
70103d72:	d0d7      	beq.n	70103d24 <HAL_TIM_OC_Start+0xc8>
70103d74:	4b1b      	ldr	r3, [pc, #108]	@ (70103de4 <HAL_TIM_OC_Start+0x188>)
70103d76:	4298      	cmp	r0, r3
70103d78:	d0d4      	beq.n	70103d24 <HAL_TIM_OC_Start+0xc8>
70103d7a:	f103 4370 	add.w	r3, r3, #4026531840	@ 0xf0000000
70103d7e:	4298      	cmp	r0, r3
70103d80:	d0d0      	beq.n	70103d24 <HAL_TIM_OC_Start+0xc8>
70103d82:	4b19      	ldr	r3, [pc, #100]	@ (70103de8 <HAL_TIM_OC_Start+0x18c>)
70103d84:	e007      	b.n	70103d96 <HAL_TIM_OC_Start+0x13a>
70103d86:	f1b0 4f84 	cmp.w	r0, #1107296256	@ 0x42000000
70103d8a:	d0cb      	beq.n	70103d24 <HAL_TIM_OC_Start+0xc8>
70103d8c:	4b0e      	ldr	r3, [pc, #56]	@ (70103dc8 <HAL_TIM_OC_Start+0x16c>)
70103d8e:	4298      	cmp	r0, r3
70103d90:	d0c8      	beq.n	70103d24 <HAL_TIM_OC_Start+0xc8>
70103d92:	f103 4370 	add.w	r3, r3, #4026531840	@ 0xf0000000
70103d96:	4298      	cmp	r0, r3
70103d98:	d0c4      	beq.n	70103d24 <HAL_TIM_OC_Start+0xc8>
70103d9a:	4b14      	ldr	r3, [pc, #80]	@ (70103dec <HAL_TIM_OC_Start+0x190>)
70103d9c:	4298      	cmp	r0, r3
70103d9e:	d0c1      	beq.n	70103d24 <HAL_TIM_OC_Start+0xc8>
70103da0:	4b13      	ldr	r3, [pc, #76]	@ (70103df0 <HAL_TIM_OC_Start+0x194>)
70103da2:	4298      	cmp	r0, r3
70103da4:	d0be      	beq.n	70103d24 <HAL_TIM_OC_Start+0xc8>
70103da6:	f103 4370 	add.w	r3, r3, #4026531840	@ 0xf0000000
70103daa:	4298      	cmp	r0, r3
70103dac:	d0ba      	beq.n	70103d24 <HAL_TIM_OC_Start+0xc8>
70103dae:	4b07      	ldr	r3, [pc, #28]	@ (70103dcc <HAL_TIM_OC_Start+0x170>)
70103db0:	4298      	cmp	r0, r3
70103db2:	d0b7      	beq.n	70103d24 <HAL_TIM_OC_Start+0xc8>
70103db4:	f103 4370 	add.w	r3, r3, #4026531840	@ 0xf0000000
70103db8:	4298      	cmp	r0, r3
70103dba:	d0b3      	beq.n	70103d24 <HAL_TIM_OC_Start+0xc8>
70103dbc:	6803      	ldr	r3, [r0, #0]
70103dbe:	f043 0301 	orr.w	r3, r3, #1
70103dc2:	6003      	str	r3, [r0, #0]
70103dc4:	e7b3      	b.n	70103d2e <HAL_TIM_OC_Start+0xd2>
70103dc6:	bf00      	nop
70103dc8:	52000400 	.word	0x52000400
70103dcc:	52004000 	.word	0x52004000
70103dd0:	52004400 	.word	0x52004400
70103dd4:	52004800 	.word	0x52004800
70103dd8:	00010007 	.word	0x00010007
70103ddc:	50000400 	.word	0x50000400
70103de0:	50000800 	.word	0x50000800
70103de4:	50000c00 	.word	0x50000c00
70103de8:	52004c00 	.word	0x52004c00
70103dec:	42004c00 	.word	0x42004c00
70103df0:	50001800 	.word	0x50001800

70103df4 <HAL_TIM_PWM_Start>:
70103df4:	f7ff bf32 	b.w	70103c5c <HAL_TIM_OC_Start>

70103df8 <HAL_TIMEx_MasterConfigSynchronization>:
70103df8:	b530      	push	{r4, r5, lr}
70103dfa:	f890 303c 	ldrb.w	r3, [r0, #60]	@ 0x3c
70103dfe:	4604      	mov	r4, r0
70103e00:	2b01      	cmp	r3, #1
70103e02:	f04f 0002 	mov.w	r0, #2
70103e06:	d064      	beq.n	70103ed2 <HAL_TIMEx_MasterConfigSynchronization+0xda>
70103e08:	6823      	ldr	r3, [r4, #0]
70103e0a:	f884 003d 	strb.w	r0, [r4, #61]	@ 0x3d
70103e0e:	f1b3 4fa4 	cmp.w	r3, #1375731712	@ 0x52000000
70103e12:	685a      	ldr	r2, [r3, #4]
70103e14:	6898      	ldr	r0, [r3, #8]
70103e16:	d009      	beq.n	70103e2c <HAL_TIMEx_MasterConfigSynchronization+0x34>
70103e18:	f1b3 4f84 	cmp.w	r3, #1107296256	@ 0x42000000
70103e1c:	d006      	beq.n	70103e2c <HAL_TIMEx_MasterConfigSynchronization+0x34>
70103e1e:	4d2d      	ldr	r5, [pc, #180]	@ (70103ed4 <HAL_TIMEx_MasterConfigSynchronization+0xdc>)
70103e20:	42ab      	cmp	r3, r5
70103e22:	d003      	beq.n	70103e2c <HAL_TIMEx_MasterConfigSynchronization+0x34>
70103e24:	f105 4570 	add.w	r5, r5, #4026531840	@ 0xf0000000
70103e28:	42ab      	cmp	r3, r5
70103e2a:	d103      	bne.n	70103e34 <HAL_TIMEx_MasterConfigSynchronization+0x3c>
70103e2c:	684d      	ldr	r5, [r1, #4]
70103e2e:	f422 0270 	bic.w	r2, r2, #15728640	@ 0xf00000
70103e32:	432a      	orrs	r2, r5
70103e34:	680d      	ldr	r5, [r1, #0]
70103e36:	f022 7200 	bic.w	r2, r2, #33554432	@ 0x2000000
70103e3a:	f022 0270 	bic.w	r2, r2, #112	@ 0x70
70103e3e:	432a      	orrs	r2, r5
70103e40:	f1b3 4fa4 	cmp.w	r3, #1375731712	@ 0x52000000
70103e44:	605a      	str	r2, [r3, #4]
70103e46:	d039      	beq.n	70103ebc <HAL_TIMEx_MasterConfigSynchronization+0xc4>
70103e48:	f1b3 4f84 	cmp.w	r3, #1107296256	@ 0x42000000
70103e4c:	d036      	beq.n	70103ebc <HAL_TIMEx_MasterConfigSynchronization+0xc4>
70103e4e:	f1b3 4fa0 	cmp.w	r3, #1342177280	@ 0x50000000
70103e52:	d033      	beq.n	70103ebc <HAL_TIMEx_MasterConfigSynchronization+0xc4>
70103e54:	f1b3 4f80 	cmp.w	r3, #1073741824	@ 0x40000000
70103e58:	d030      	beq.n	70103ebc <HAL_TIMEx_MasterConfigSynchronization+0xc4>
70103e5a:	4a1f      	ldr	r2, [pc, #124]	@ (70103ed8 <HAL_TIMEx_MasterConfigSynchronization+0xe0>)
70103e5c:	4293      	cmp	r3, r2
70103e5e:	d02d      	beq.n	70103ebc <HAL_TIMEx_MasterConfigSynchronization+0xc4>
70103e60:	f102 4270 	add.w	r2, r2, #4026531840	@ 0xf0000000
70103e64:	4293      	cmp	r3, r2
70103e66:	d029      	beq.n	70103ebc <HAL_TIMEx_MasterConfigSynchronization+0xc4>
70103e68:	4a1c      	ldr	r2, [pc, #112]	@ (70103edc <HAL_TIMEx_MasterConfigSynchronization+0xe4>)
70103e6a:	4293      	cmp	r3, r2
70103e6c:	d026      	beq.n	70103ebc <HAL_TIMEx_MasterConfigSynchronization+0xc4>
70103e6e:	f102 4270 	add.w	r2, r2, #4026531840	@ 0xf0000000
70103e72:	4293      	cmp	r3, r2
70103e74:	d022      	beq.n	70103ebc <HAL_TIMEx_MasterConfigSynchronization+0xc4>
70103e76:	4a1a      	ldr	r2, [pc, #104]	@ (70103ee0 <HAL_TIMEx_MasterConfigSynchronization+0xe8>)
70103e78:	4293      	cmp	r3, r2
70103e7a:	d01f      	beq.n	70103ebc <HAL_TIMEx_MasterConfigSynchronization+0xc4>
70103e7c:	f102 4270 	add.w	r2, r2, #4026531840	@ 0xf0000000
70103e80:	4293      	cmp	r3, r2
70103e82:	d01b      	beq.n	70103ebc <HAL_TIMEx_MasterConfigSynchronization+0xc4>
70103e84:	4a13      	ldr	r2, [pc, #76]	@ (70103ed4 <HAL_TIMEx_MasterConfigSynchronization+0xdc>)
70103e86:	4293      	cmp	r3, r2
70103e88:	d018      	beq.n	70103ebc <HAL_TIMEx_MasterConfigSynchronization+0xc4>
70103e8a:	f102 4270 	add.w	r2, r2, #4026531840	@ 0xf0000000
70103e8e:	4293      	cmp	r3, r2
70103e90:	d014      	beq.n	70103ebc <HAL_TIMEx_MasterConfigSynchronization+0xc4>
70103e92:	4a14      	ldr	r2, [pc, #80]	@ (70103ee4 <HAL_TIMEx_MasterConfigSynchronization+0xec>)
70103e94:	4293      	cmp	r3, r2
70103e96:	d011      	beq.n	70103ebc <HAL_TIMEx_MasterConfigSynchronization+0xc4>
70103e98:	f102 4270 	add.w	r2, r2, #4026531840	@ 0xf0000000
70103e9c:	4293      	cmp	r3, r2
70103e9e:	d00d      	beq.n	70103ebc <HAL_TIMEx_MasterConfigSynchronization+0xc4>
70103ea0:	4a11      	ldr	r2, [pc, #68]	@ (70103ee8 <HAL_TIMEx_MasterConfigSynchronization+0xf0>)
70103ea2:	4293      	cmp	r3, r2
70103ea4:	d00a      	beq.n	70103ebc <HAL_TIMEx_MasterConfigSynchronization+0xc4>
70103ea6:	f102 4270 	add.w	r2, r2, #4026531840	@ 0xf0000000
70103eaa:	4293      	cmp	r3, r2
70103eac:	d006      	beq.n	70103ebc <HAL_TIMEx_MasterConfigSynchronization+0xc4>
70103eae:	4a0f      	ldr	r2, [pc, #60]	@ (70103eec <HAL_TIMEx_MasterConfigSynchronization+0xf4>)
70103eb0:	4293      	cmp	r3, r2
70103eb2:	d003      	beq.n	70103ebc <HAL_TIMEx_MasterConfigSynchronization+0xc4>
70103eb4:	f102 4270 	add.w	r2, r2, #4026531840	@ 0xf0000000
70103eb8:	4293      	cmp	r3, r2
70103eba:	d104      	bne.n	70103ec6 <HAL_TIMEx_MasterConfigSynchronization+0xce>
70103ebc:	6889      	ldr	r1, [r1, #8]
70103ebe:	f020 0280 	bic.w	r2, r0, #128	@ 0x80
70103ec2:	430a      	orrs	r2, r1
70103ec4:	609a      	str	r2, [r3, #8]
70103ec6:	2301      	movs	r3, #1
70103ec8:	2000      	movs	r0, #0
70103eca:	f884 303d 	strb.w	r3, [r4, #61]	@ 0x3d
70103ece:	f884 003c 	strb.w	r0, [r4, #60]	@ 0x3c
70103ed2:	bd30      	pop	{r4, r5, pc}
70103ed4:	52000400 	.word	0x52000400
70103ed8:	50000400 	.word	0x50000400
70103edc:	50000800 	.word	0x50000800
70103ee0:	50000c00 	.word	0x50000c00
70103ee4:	52004c00 	.word	0x52004c00
70103ee8:	50001800 	.word	0x50001800
70103eec:	52004000 	.word	0x52004000

70103ef0 <UART_EndRxTransfer>:
70103ef0:	b510      	push	{r4, lr}
70103ef2:	6802      	ldr	r2, [r0, #0]
70103ef4:	e852 3f00 	ldrex	r3, [r2]
70103ef8:	f423 7390 	bic.w	r3, r3, #288	@ 0x120
70103efc:	e842 3100 	strex	r1, r3, [r2]
70103f00:	6802      	ldr	r2, [r0, #0]
70103f02:	2900      	cmp	r1, #0
70103f04:	d1f5      	bne.n	70103ef2 <UART_EndRxTransfer+0x2>
70103f06:	4c0f      	ldr	r4, [pc, #60]	@ (70103f44 <UART_EndRxTransfer+0x54>)
70103f08:	f102 0308 	add.w	r3, r2, #8
70103f0c:	e853 3f00 	ldrex	r3, [r3]
70103f10:	4023      	ands	r3, r4
70103f12:	f102 0c08 	add.w	ip, r2, #8
70103f16:	e84c 3100 	strex	r1, r3, [ip]
70103f1a:	2900      	cmp	r1, #0
70103f1c:	d1f4      	bne.n	70103f08 <UART_EndRxTransfer+0x18>
70103f1e:	6ec3      	ldr	r3, [r0, #108]	@ 0x6c
70103f20:	2b01      	cmp	r3, #1
70103f22:	d107      	bne.n	70103f34 <UART_EndRxTransfer+0x44>
70103f24:	e852 3f00 	ldrex	r3, [r2]
70103f28:	f023 0310 	bic.w	r3, r3, #16
70103f2c:	e842 3100 	strex	r1, r3, [r2]
70103f30:	2900      	cmp	r1, #0
70103f32:	d1f7      	bne.n	70103f24 <UART_EndRxTransfer+0x34>
70103f34:	2320      	movs	r3, #32
70103f36:	f8c0 308c 	str.w	r3, [r0, #140]	@ 0x8c
70103f3a:	2300      	movs	r3, #0
70103f3c:	66c3      	str	r3, [r0, #108]	@ 0x6c
70103f3e:	6743      	str	r3, [r0, #116]	@ 0x74
70103f40:	bd10      	pop	{r4, pc}
70103f42:	bf00      	nop
70103f44:	effffffe 	.word	0xeffffffe

70103f48 <HAL_UART_TxCpltCallback>:
70103f48:	4770      	bx	lr

70103f4a <HAL_UART_ErrorCallback>:
70103f4a:	4770      	bx	lr

70103f4c <UART_DMAAbortOnError>:
70103f4c:	b508      	push	{r3, lr}
70103f4e:	2300      	movs	r3, #0
70103f50:	6dc0      	ldr	r0, [r0, #92]	@ 0x5c
70103f52:	f8a0 305e 	strh.w	r3, [r0, #94]	@ 0x5e
70103f56:	f7ff fff8 	bl	70103f4a <HAL_UART_ErrorCallback>
70103f5a:	bd08      	pop	{r3, pc}

70103f5c <HAL_UARTEx_RxEventCallback>:
70103f5c:	4770      	bx	lr
	...

70103f60 <HAL_UART_IRQHandler>:
70103f60:	e92d 41f0 	stmdb	sp!, {r4, r5, r6, r7, r8, lr}
70103f64:	f640 060f 	movw	r6, #2063	@ 0x80f
70103f68:	6803      	ldr	r3, [r0, #0]
70103f6a:	4604      	mov	r4, r0
70103f6c:	69d9      	ldr	r1, [r3, #28]
70103f6e:	681a      	ldr	r2, [r3, #0]
70103f70:	4231      	tst	r1, r6
70103f72:	689d      	ldr	r5, [r3, #8]
70103f74:	d110      	bne.n	70103f98 <HAL_UART_IRQHandler+0x38>
70103f76:	068e      	lsls	r6, r1, #26
70103f78:	f140 8097 	bpl.w	701040aa <HAL_UART_IRQHandler+0x14a>
70103f7c:	f002 0620 	and.w	r6, r2, #32
70103f80:	f005 5780 	and.w	r7, r5, #268435456	@ 0x10000000
70103f84:	433e      	orrs	r6, r7
70103f86:	f000 8090 	beq.w	701040aa <HAL_UART_IRQHandler+0x14a>
70103f8a:	6f43      	ldr	r3, [r0, #116]	@ 0x74
70103f8c:	2b00      	cmp	r3, #0
70103f8e:	f000 8085 	beq.w	7010409c <HAL_UART_IRQHandler+0x13c>
70103f92:	e8bd 41f0 	ldmia.w	sp!, {r4, r5, r6, r7, r8, lr}
70103f96:	4718      	bx	r3
70103f98:	4ea8      	ldr	r6, [pc, #672]	@ (7010423c <HAL_UART_IRQHandler+0x2dc>)
70103f9a:	48a9      	ldr	r0, [pc, #676]	@ (70104240 <HAL_UART_IRQHandler+0x2e0>)
70103f9c:	402e      	ands	r6, r5
70103f9e:	4010      	ands	r0, r2
70103fa0:	4330      	orrs	r0, r6
70103fa2:	f000 8082 	beq.w	701040aa <HAL_UART_IRQHandler+0x14a>
70103fa6:	07cf      	lsls	r7, r1, #31
70103fa8:	d509      	bpl.n	70103fbe <HAL_UART_IRQHandler+0x5e>
70103faa:	05d0      	lsls	r0, r2, #23
70103fac:	d507      	bpl.n	70103fbe <HAL_UART_IRQHandler+0x5e>
70103fae:	2001      	movs	r0, #1
70103fb0:	6218      	str	r0, [r3, #32]
70103fb2:	f8d4 0090 	ldr.w	r0, [r4, #144]	@ 0x90
70103fb6:	f040 0001 	orr.w	r0, r0, #1
70103fba:	f8c4 0090 	str.w	r0, [r4, #144]	@ 0x90
70103fbe:	078f      	lsls	r7, r1, #30
70103fc0:	d509      	bpl.n	70103fd6 <HAL_UART_IRQHandler+0x76>
70103fc2:	07e8      	lsls	r0, r5, #31
70103fc4:	d507      	bpl.n	70103fd6 <HAL_UART_IRQHandler+0x76>
70103fc6:	2002      	movs	r0, #2
70103fc8:	6218      	str	r0, [r3, #32]
70103fca:	f8d4 0090 	ldr.w	r0, [r4, #144]	@ 0x90
70103fce:	f040 0004 	orr.w	r0, r0, #4
70103fd2:	f8c4 0090 	str.w	r0, [r4, #144]	@ 0x90
70103fd6:	074f      	lsls	r7, r1, #29
70103fd8:	d509      	bpl.n	70103fee <HAL_UART_IRQHandler+0x8e>
70103fda:	07e8      	lsls	r0, r5, #31
70103fdc:	d507      	bpl.n	70103fee <HAL_UART_IRQHandler+0x8e>
70103fde:	2004      	movs	r0, #4
70103fe0:	6218      	str	r0, [r3, #32]
70103fe2:	f8d4 0090 	ldr.w	r0, [r4, #144]	@ 0x90
70103fe6:	f040 0002 	orr.w	r0, r0, #2
70103fea:	f8c4 0090 	str.w	r0, [r4, #144]	@ 0x90
70103fee:	070f      	lsls	r7, r1, #28
70103ff0:	d50b      	bpl.n	7010400a <HAL_UART_IRQHandler+0xaa>
70103ff2:	f002 0020 	and.w	r0, r2, #32
70103ff6:	4330      	orrs	r0, r6
70103ff8:	d007      	beq.n	7010400a <HAL_UART_IRQHandler+0xaa>
70103ffa:	2008      	movs	r0, #8
70103ffc:	6218      	str	r0, [r3, #32]
70103ffe:	f8d4 0090 	ldr.w	r0, [r4, #144]	@ 0x90
70104002:	f040 0008 	orr.w	r0, r0, #8
70104006:	f8c4 0090 	str.w	r0, [r4, #144]	@ 0x90
7010400a:	050e      	lsls	r6, r1, #20
7010400c:	d50a      	bpl.n	70104024 <HAL_UART_IRQHandler+0xc4>
7010400e:	0150      	lsls	r0, r2, #5
70104010:	d508      	bpl.n	70104024 <HAL_UART_IRQHandler+0xc4>
70104012:	f44f 6000 	mov.w	r0, #2048	@ 0x800
70104016:	6218      	str	r0, [r3, #32]
70104018:	f8d4 3090 	ldr.w	r3, [r4, #144]	@ 0x90
7010401c:	f043 0320 	orr.w	r3, r3, #32
70104020:	f8c4 3090 	str.w	r3, [r4, #144]	@ 0x90
70104024:	f8d4 3090 	ldr.w	r3, [r4, #144]	@ 0x90
70104028:	2b00      	cmp	r3, #0
7010402a:	d037      	beq.n	7010409c <HAL_UART_IRQHandler+0x13c>
7010402c:	068b      	lsls	r3, r1, #26
7010402e:	d509      	bpl.n	70104044 <HAL_UART_IRQHandler+0xe4>
70104030:	f002 0220 	and.w	r2, r2, #32
70104034:	f005 5580 	and.w	r5, r5, #268435456	@ 0x10000000
70104038:	432a      	orrs	r2, r5
7010403a:	d003      	beq.n	70104044 <HAL_UART_IRQHandler+0xe4>
7010403c:	6f63      	ldr	r3, [r4, #116]	@ 0x74
7010403e:	b10b      	cbz	r3, 70104044 <HAL_UART_IRQHandler+0xe4>
70104040:	4620      	mov	r0, r4
70104042:	4798      	blx	r3
70104044:	6826      	ldr	r6, [r4, #0]
70104046:	f8d4 2090 	ldr.w	r2, [r4, #144]	@ 0x90
7010404a:	68b3      	ldr	r3, [r6, #8]
7010404c:	f002 0228 	and.w	r2, r2, #40	@ 0x28
70104050:	f003 0340 	and.w	r3, r3, #64	@ 0x40
70104054:	ea53 0502 	orrs.w	r5, r3, r2
70104058:	4620      	mov	r0, r4
7010405a:	d021      	beq.n	701040a0 <HAL_UART_IRQHandler+0x140>
7010405c:	f7ff ff48 	bl	70103ef0 <UART_EndRxTransfer>
70104060:	68b3      	ldr	r3, [r6, #8]
70104062:	065f      	lsls	r7, r3, #25
70104064:	d517      	bpl.n	70104096 <HAL_UART_IRQHandler+0x136>
70104066:	6822      	ldr	r2, [r4, #0]
70104068:	f102 0308 	add.w	r3, r2, #8
7010406c:	e853 3f00 	ldrex	r3, [r3]
70104070:	f023 0340 	bic.w	r3, r3, #64	@ 0x40
70104074:	3208      	adds	r2, #8
70104076:	e842 3100 	strex	r1, r3, [r2]
7010407a:	2900      	cmp	r1, #0
7010407c:	d1f3      	bne.n	70104066 <HAL_UART_IRQHandler+0x106>
7010407e:	f8d4 0080 	ldr.w	r0, [r4, #128]	@ 0x80
70104082:	b140      	cbz	r0, 70104096 <HAL_UART_IRQHandler+0x136>
70104084:	4b6f      	ldr	r3, [pc, #444]	@ (70104244 <HAL_UART_IRQHandler+0x2e4>)
70104086:	66c3      	str	r3, [r0, #108]	@ 0x6c
70104088:	f7fd fc00 	bl	7010188c <HAL_DMA_Abort_IT>
7010408c:	b130      	cbz	r0, 7010409c <HAL_UART_IRQHandler+0x13c>
7010408e:	f8d4 0080 	ldr.w	r0, [r4, #128]	@ 0x80
70104092:	6ec3      	ldr	r3, [r0, #108]	@ 0x6c
70104094:	e77d      	b.n	70103f92 <HAL_UART_IRQHandler+0x32>
70104096:	4620      	mov	r0, r4
70104098:	f7ff ff57 	bl	70103f4a <HAL_UART_ErrorCallback>
7010409c:	e8bd 81f0 	ldmia.w	sp!, {r4, r5, r6, r7, r8, pc}
701040a0:	f7ff ff53 	bl	70103f4a <HAL_UART_ErrorCallback>
701040a4:	f8c4 5090 	str.w	r5, [r4, #144]	@ 0x90
701040a8:	e7f8      	b.n	7010409c <HAL_UART_IRQHandler+0x13c>
701040aa:	6ee0      	ldr	r0, [r4, #108]	@ 0x6c
701040ac:	2801      	cmp	r0, #1
701040ae:	f040 808d 	bne.w	701041cc <HAL_UART_IRQHandler+0x26c>
701040b2:	06ce      	lsls	r6, r1, #27
701040b4:	f140 808a 	bpl.w	701041cc <HAL_UART_IRQHandler+0x26c>
701040b8:	06d0      	lsls	r0, r2, #27
701040ba:	f140 8087 	bpl.w	701041cc <HAL_UART_IRQHandler+0x26c>
701040be:	2210      	movs	r2, #16
701040c0:	621a      	str	r2, [r3, #32]
701040c2:	6899      	ldr	r1, [r3, #8]
701040c4:	f8b4 205c 	ldrh.w	r2, [r4, #92]	@ 0x5c
701040c8:	0649      	lsls	r1, r1, #25
701040ca:	d551      	bpl.n	70104170 <HAL_UART_IRQHandler+0x210>
701040cc:	f8d4 0080 	ldr.w	r0, [r4, #128]	@ 0x80
701040d0:	6801      	ldr	r1, [r0, #0]
701040d2:	6c89      	ldr	r1, [r1, #72]	@ 0x48
701040d4:	b289      	uxth	r1, r1
701040d6:	2900      	cmp	r1, #0
701040d8:	d042      	beq.n	70104160 <HAL_UART_IRQHandler+0x200>
701040da:	4291      	cmp	r1, r2
701040dc:	d240      	bcs.n	70104160 <HAL_UART_IRQHandler+0x200>
701040de:	6d02      	ldr	r2, [r0, #80]	@ 0x50
701040e0:	f8a4 105e 	strh.w	r1, [r4, #94]	@ 0x5e
701040e4:	2a81      	cmp	r2, #129	@ 0x81
701040e6:	d02f      	beq.n	70104148 <HAL_UART_IRQHandler+0x1e8>
701040e8:	e853 2f00 	ldrex	r2, [r3]
701040ec:	f422 7280 	bic.w	r2, r2, #256	@ 0x100
701040f0:	e843 2100 	strex	r1, r2, [r3]
701040f4:	2900      	cmp	r1, #0
701040f6:	d1f7      	bne.n	701040e8 <HAL_UART_IRQHandler+0x188>
701040f8:	f103 0208 	add.w	r2, r3, #8
701040fc:	e852 2f00 	ldrex	r2, [r2]
70104100:	f022 0201 	bic.w	r2, r2, #1
70104104:	f103 0008 	add.w	r0, r3, #8
70104108:	e840 2100 	strex	r1, r2, [r0]
7010410c:	2900      	cmp	r1, #0
7010410e:	d1f3      	bne.n	701040f8 <HAL_UART_IRQHandler+0x198>
70104110:	f103 0208 	add.w	r2, r3, #8
70104114:	e852 2f00 	ldrex	r2, [r2]
70104118:	f022 0240 	bic.w	r2, r2, #64	@ 0x40
7010411c:	f103 0008 	add.w	r0, r3, #8
70104120:	e840 2100 	strex	r1, r2, [r0]
70104124:	2900      	cmp	r1, #0
70104126:	d1f3      	bne.n	70104110 <HAL_UART_IRQHandler+0x1b0>
70104128:	2220      	movs	r2, #32
7010412a:	f8c4 208c 	str.w	r2, [r4, #140]	@ 0x8c
7010412e:	66e1      	str	r1, [r4, #108]	@ 0x6c
70104130:	e853 2f00 	ldrex	r2, [r3]
70104134:	f022 0210 	bic.w	r2, r2, #16
70104138:	e843 2100 	strex	r1, r2, [r3]
7010413c:	2900      	cmp	r1, #0
7010413e:	d1f7      	bne.n	70104130 <HAL_UART_IRQHandler+0x1d0>
70104140:	f8d4 0080 	ldr.w	r0, [r4, #128]	@ 0x80
70104144:	f7fd fb58 	bl	701017f8 <HAL_DMA_Abort>
70104148:	2302      	movs	r3, #2
7010414a:	6723      	str	r3, [r4, #112]	@ 0x70
7010414c:	f8b4 305e 	ldrh.w	r3, [r4, #94]	@ 0x5e
70104150:	f8b4 105c 	ldrh.w	r1, [r4, #92]	@ 0x5c
70104154:	1ac9      	subs	r1, r1, r3
70104156:	b289      	uxth	r1, r1
70104158:	4620      	mov	r0, r4
7010415a:	f7ff feff 	bl	70103f5c <HAL_UARTEx_RxEventCallback>
7010415e:	e79d      	b.n	7010409c <HAL_UART_IRQHandler+0x13c>
70104160:	4291      	cmp	r1, r2
70104162:	d19b      	bne.n	7010409c <HAL_UART_IRQHandler+0x13c>
70104164:	6d03      	ldr	r3, [r0, #80]	@ 0x50
70104166:	2b81      	cmp	r3, #129	@ 0x81
70104168:	d198      	bne.n	7010409c <HAL_UART_IRQHandler+0x13c>
7010416a:	2302      	movs	r3, #2
7010416c:	6723      	str	r3, [r4, #112]	@ 0x70
7010416e:	e7f3      	b.n	70104158 <HAL_UART_IRQHandler+0x1f8>
70104170:	f8b4 105e 	ldrh.w	r1, [r4, #94]	@ 0x5e
70104174:	f8b4 005e 	ldrh.w	r0, [r4, #94]	@ 0x5e
70104178:	b289      	uxth	r1, r1
7010417a:	b280      	uxth	r0, r0
7010417c:	2800      	cmp	r0, #0
7010417e:	d08d      	beq.n	7010409c <HAL_UART_IRQHandler+0x13c>
70104180:	1a52      	subs	r2, r2, r1
70104182:	b291      	uxth	r1, r2
70104184:	2900      	cmp	r1, #0
70104186:	d089      	beq.n	7010409c <HAL_UART_IRQHandler+0x13c>
70104188:	e853 2f00 	ldrex	r2, [r3]
7010418c:	f422 7290 	bic.w	r2, r2, #288	@ 0x120
70104190:	e843 2000 	strex	r0, r2, [r3]
70104194:	2800      	cmp	r0, #0
70104196:	d1f7      	bne.n	70104188 <HAL_UART_IRQHandler+0x228>
70104198:	4d2b      	ldr	r5, [pc, #172]	@ (70104248 <HAL_UART_IRQHandler+0x2e8>)
7010419a:	f103 0208 	add.w	r2, r3, #8
7010419e:	e852 2f00 	ldrex	r2, [r2]
701041a2:	402a      	ands	r2, r5
701041a4:	f103 0608 	add.w	r6, r3, #8
701041a8:	e846 2000 	strex	r0, r2, [r6]
701041ac:	2800      	cmp	r0, #0
701041ae:	d1f4      	bne.n	7010419a <HAL_UART_IRQHandler+0x23a>
701041b0:	2220      	movs	r2, #32
701041b2:	6760      	str	r0, [r4, #116]	@ 0x74
701041b4:	f8c4 208c 	str.w	r2, [r4, #140]	@ 0x8c
701041b8:	66e0      	str	r0, [r4, #108]	@ 0x6c
701041ba:	e853 2f00 	ldrex	r2, [r3]
701041be:	f022 0210 	bic.w	r2, r2, #16
701041c2:	e843 2000 	strex	r0, r2, [r3]
701041c6:	2800      	cmp	r0, #0
701041c8:	d1f7      	bne.n	701041ba <HAL_UART_IRQHandler+0x25a>
701041ca:	e7ce      	b.n	7010416a <HAL_UART_IRQHandler+0x20a>
701041cc:	02cf      	lsls	r7, r1, #11
701041ce:	d509      	bpl.n	701041e4 <HAL_UART_IRQHandler+0x284>
701041d0:	026e      	lsls	r6, r5, #9
701041d2:	d507      	bpl.n	701041e4 <HAL_UART_IRQHandler+0x284>
701041d4:	f44f 1280 	mov.w	r2, #1048576	@ 0x100000
701041d8:	4620      	mov	r0, r4
701041da:	e8bd 41f0 	ldmia.w	sp!, {r4, r5, r6, r7, r8, lr}
701041de:	621a      	str	r2, [r3, #32]
701041e0:	f000 b840 	b.w	70104264 <HAL_UARTEx_WakeupCallback>
701041e4:	0608      	lsls	r0, r1, #24
701041e6:	d50b      	bpl.n	70104200 <HAL_UART_IRQHandler+0x2a0>
701041e8:	f002 0080 	and.w	r0, r2, #128	@ 0x80
701041ec:	f405 0500 	and.w	r5, r5, #8388608	@ 0x800000
701041f0:	4328      	orrs	r0, r5
701041f2:	d005      	beq.n	70104200 <HAL_UART_IRQHandler+0x2a0>
701041f4:	6fa3      	ldr	r3, [r4, #120]	@ 0x78
701041f6:	2b00      	cmp	r3, #0
701041f8:	f43f af50 	beq.w	7010409c <HAL_UART_IRQHandler+0x13c>
701041fc:	4620      	mov	r0, r4
701041fe:	e6c8      	b.n	70103f92 <HAL_UART_IRQHandler+0x32>
70104200:	064f      	lsls	r7, r1, #25
70104202:	d511      	bpl.n	70104228 <HAL_UART_IRQHandler+0x2c8>
70104204:	0656      	lsls	r6, r2, #25
70104206:	d50f      	bpl.n	70104228 <HAL_UART_IRQHandler+0x2c8>
70104208:	e853 2f00 	ldrex	r2, [r3]
7010420c:	f022 0240 	bic.w	r2, r2, #64	@ 0x40
70104210:	e843 2100 	strex	r1, r2, [r3]
70104214:	2900      	cmp	r1, #0
70104216:	d1f7      	bne.n	70104208 <HAL_UART_IRQHandler+0x2a8>
70104218:	2320      	movs	r3, #32
7010421a:	4620      	mov	r0, r4
7010421c:	f8c4 3088 	str.w	r3, [r4, #136]	@ 0x88
70104220:	67a1      	str	r1, [r4, #120]	@ 0x78
70104222:	f7ff fe91 	bl	70103f48 <HAL_UART_TxCpltCallback>
70104226:	e739      	b.n	7010409c <HAL_UART_IRQHandler+0x13c>
70104228:	020d      	lsls	r5, r1, #8
7010422a:	d50f      	bpl.n	7010424c <HAL_UART_IRQHandler+0x2ec>
7010422c:	0050      	lsls	r0, r2, #1
7010422e:	d50d      	bpl.n	7010424c <HAL_UART_IRQHandler+0x2ec>
70104230:	4620      	mov	r0, r4
70104232:	e8bd 41f0 	ldmia.w	sp!, {r4, r5, r6, r7, r8, lr}
70104236:	f000 b817 	b.w	70104268 <HAL_UARTEx_TxFifoEmptyCallback>
7010423a:	bf00      	nop
7010423c:	10000001 	.word	0x10000001
70104240:	04000120 	.word	0x04000120
70104244:	70103f4d 	.word	0x70103f4d
70104248:	effffffe 	.word	0xeffffffe
7010424c:	01cb      	lsls	r3, r1, #7
7010424e:	f57f af25 	bpl.w	7010409c <HAL_UART_IRQHandler+0x13c>
70104252:	2a00      	cmp	r2, #0
70104254:	f6bf af22 	bge.w	7010409c <HAL_UART_IRQHandler+0x13c>
70104258:	4620      	mov	r0, r4
7010425a:	e8bd 41f0 	ldmia.w	sp!, {r4, r5, r6, r7, r8, lr}
7010425e:	f000 b802 	b.w	70104266 <HAL_UARTEx_RxFifoFullCallback>
70104262:	bf00      	nop

70104264 <HAL_UARTEx_WakeupCallback>:
70104264:	4770      	bx	lr

70104266 <HAL_UARTEx_RxFifoFullCallback>:
70104266:	4770      	bx	lr

70104268 <HAL_UARTEx_TxFifoEmptyCallback>:
70104268:	4770      	bx	lr

7010426a <memset>:
7010426a:	4402      	add	r2, r0
7010426c:	4603      	mov	r3, r0
7010426e:	4293      	cmp	r3, r2
70104270:	d100      	bne.n	70104274 <memset+0xa>
70104272:	4770      	bx	lr
70104274:	f803 1b01 	strb.w	r1, [r3], #1
70104278:	e7f9      	b.n	7010426e <memset+0x4>
	...

7010427c <__libc_init_array>:
7010427c:	b570      	push	{r4, r5, r6, lr}
7010427e:	4b0d      	ldr	r3, [pc, #52]	@ (701042b4 <__libc_init_array+0x38>)
70104280:	2600      	movs	r6, #0
70104282:	4d0d      	ldr	r5, [pc, #52]	@ (701042b8 <__libc_init_array+0x3c>)
70104284:	1b5b      	subs	r3, r3, r5
70104286:	109c      	asrs	r4, r3, #2
70104288:	42a6      	cmp	r6, r4
7010428a:	d109      	bne.n	701042a0 <__libc_init_array+0x24>
7010428c:	4d0b      	ldr	r5, [pc, #44]	@ (701042bc <__libc_init_array+0x40>)
7010428e:	f000 f819 	bl	701042c4 <_init>
70104292:	4b0b      	ldr	r3, [pc, #44]	@ (701042c0 <__libc_init_array+0x44>)
70104294:	2600      	movs	r6, #0
70104296:	1b5b      	subs	r3, r3, r5
70104298:	109c      	asrs	r4, r3, #2
7010429a:	42a6      	cmp	r6, r4
7010429c:	d105      	bne.n	701042aa <__libc_init_array+0x2e>
7010429e:	bd70      	pop	{r4, r5, r6, pc}
701042a0:	f855 3b04 	ldr.w	r3, [r5], #4
701042a4:	3601      	adds	r6, #1
701042a6:	4798      	blx	r3
701042a8:	e7ee      	b.n	70104288 <__libc_init_array+0xc>
701042aa:	f855 3b04 	ldr.w	r3, [r5], #4
701042ae:	3601      	adds	r6, #1
701042b0:	4798      	blx	r3
701042b2:	e7f2      	b.n	7010429a <__libc_init_array+0x1e>
701042b4:	701042dc 	.word	0x701042dc
701042b8:	701042dc 	.word	0x701042dc
701042bc:	701042dc 	.word	0x701042dc
701042c0:	701042e0 	.word	0x701042e0

701042c4 <_init>:
701042c4:	b5f8      	push	{r3, r4, r5, r6, r7, lr}
701042c6:	bf00      	nop
701042c8:	bcf8      	pop	{r3, r4, r5, r6, r7}
701042ca:	bc08      	pop	{r3}
701042cc:	469e      	mov	lr, r3
701042ce:	4770      	bx	lr

701042d0 <_fini>:
701042d0:	b5f8      	push	{r3, r4, r5, r6, r7, lr}
701042d2:	bf00      	nop
701042d4:	bcf8      	pop	{r3, r4, r5, r6, r7}
701042d6:	bc08      	pop	{r3}
701042d8:	469e      	mov	lr, r3
701042da:	4770      	bx	lr

Disassembly of section .gnu.sgstubs:

70104300 <SECURE_SystemCoreClockUpdate>:
70104300:	e97f e97f 	sg
70104304:	f7fc bd2a 	b.w	70100d5c <__acle_se_SECURE_SystemCoreClockUpdate>

70104308 <SECURE_RegisterCallback>:
70104308:	e97f e97f 	sg
7010430c:	f7fc bb34 	b.w	70100978 <__acle_se_SECURE_RegisterCallback>
	...
